
Neo_1.elf:     file format elf32-avr

Sections:
Idx Name          Size      VMA       LMA       File off  Algn
  0 .data         00000034  00800100  00002316  000023aa  2**0
                  CONTENTS, ALLOC, LOAD, DATA
  1 .text         00002316  00000000  00000000  00000094  2**1
                  CONTENTS, ALLOC, LOAD, READONLY, CODE
  2 .bss          00000048  00800134  00800134  000023de  2**0
                  ALLOC
  3 .comment      00000030  00000000  00000000  000023de  2**0
                  CONTENTS, READONLY
  4 .note.gnu.avr.deviceinfo 00000040  00000000  00000000  00002410  2**2
                  CONTENTS, READONLY
  5 .debug_aranges 000000f8  00000000  00000000  00002450  2**0
                  CONTENTS, READONLY, DEBUGGING
  6 .debug_info   00001ef4  00000000  00000000  00002548  2**0
                  CONTENTS, READONLY, DEBUGGING
  7 .debug_abbrev 00000aea  00000000  00000000  0000443c  2**0
                  CONTENTS, READONLY, DEBUGGING
  8 .debug_line   00000c48  00000000  00000000  00004f26  2**0
                  CONTENTS, READONLY, DEBUGGING
  9 .debug_frame  0000075c  00000000  00000000  00005b70  2**2
                  CONTENTS, READONLY, DEBUGGING
 10 .debug_str    0000062e  00000000  00000000  000062cc  2**0
                  CONTENTS, READONLY, DEBUGGING
 11 .debug_loc    00002897  00000000  00000000  000068fa  2**0
                  CONTENTS, READONLY, DEBUGGING
 12 .debug_ranges 00000178  00000000  00000000  00009191  2**0
                  CONTENTS, READONLY, DEBUGGING

Disassembly of section .text:

00000000 <__vectors>:
       0:	0c 94 70 00 	jmp	0xe0	; 0xe0 <__ctors_end>
       4:	0c 94 8d 00 	jmp	0x11a	; 0x11a <__bad_interrupt>
       8:	0c 94 8d 00 	jmp	0x11a	; 0x11a <__bad_interrupt>
       c:	0c 94 8d 00 	jmp	0x11a	; 0x11a <__bad_interrupt>
      10:	0c 94 8d 00 	jmp	0x11a	; 0x11a <__bad_interrupt>
      14:	0c 94 8d 00 	jmp	0x11a	; 0x11a <__bad_interrupt>
      18:	0c 94 8d 00 	jmp	0x11a	; 0x11a <__bad_interrupt>
      1c:	0c 94 8d 00 	jmp	0x11a	; 0x11a <__bad_interrupt>
      20:	0c 94 8d 00 	jmp	0x11a	; 0x11a <__bad_interrupt>
      24:	0c 94 8d 00 	jmp	0x11a	; 0x11a <__bad_interrupt>
      28:	0c 94 8d 00 	jmp	0x11a	; 0x11a <__bad_interrupt>
      2c:	0c 94 8d 00 	jmp	0x11a	; 0x11a <__bad_interrupt>
      30:	0c 94 8d 00 	jmp	0x11a	; 0x11a <__bad_interrupt>
      34:	0c 94 8d 00 	jmp	0x11a	; 0x11a <__bad_interrupt>
      38:	0c 94 8d 00 	jmp	0x11a	; 0x11a <__bad_interrupt>
      3c:	0c 94 8d 00 	jmp	0x11a	; 0x11a <__bad_interrupt>
      40:	0c 94 8d 00 	jmp	0x11a	; 0x11a <__bad_interrupt>
      44:	0c 94 8d 00 	jmp	0x11a	; 0x11a <__bad_interrupt>
      48:	0c 94 8d 00 	jmp	0x11a	; 0x11a <__bad_interrupt>
      4c:	0c 94 8d 00 	jmp	0x11a	; 0x11a <__bad_interrupt>
      50:	0c 94 8d 00 	jmp	0x11a	; 0x11a <__bad_interrupt>
      54:	0c 94 8d 00 	jmp	0x11a	; 0x11a <__bad_interrupt>
      58:	0c 94 8d 00 	jmp	0x11a	; 0x11a <__bad_interrupt>
      5c:	0c 94 8d 00 	jmp	0x11a	; 0x11a <__bad_interrupt>
      60:	0c 94 8d 00 	jmp	0x11a	; 0x11a <__bad_interrupt>
      64:	0c 94 8d 00 	jmp	0x11a	; 0x11a <__bad_interrupt>
      68:	05 a8       	ldd	r0, Z+53	; 0x35
      6a:	4c cd       	rjmp	.-1384   	; 0xfffffb04 <__eeprom_end+0xff7efb04>
      6c:	b2 d4       	rcall	.+2404   	; 0x9d2 <__stack+0xd3>
      6e:	4e b9       	out	0x0e, r20	; 14
      70:	38 36       	cpi	r19, 0x68	; 104
      72:	a9 02       	muls	r26, r25
      74:	0c 50       	subi	r16, 0x0C	; 12
      76:	b9 91       	ld	r27, Y+
      78:	86 88       	ldd	r8, Z+22	; 0x16
      7a:	08 3c       	cpi	r16, 0xC8	; 200
      7c:	a6 aa       	std	Z+54, r10	; 0x36
      7e:	aa 2a       	or	r10, r26
      80:	be 00       	.word	0x00be	; ????
      82:	00 00       	nop
      84:	80 3f       	cpi	r24, 0xF0	; 240
      86:	08 00       	.word	0x0008	; ????
      88:	00 00       	nop
      8a:	be 92       	st	-X, r11
      8c:	24 49       	sbci	r18, 0x94	; 148
      8e:	12 3e       	cpi	r17, 0xE2	; 226
      90:	ab aa       	std	Y+51, r10	; 0x33
      92:	aa 2a       	or	r10, r26
      94:	be cd       	rjmp	.-1156   	; 0xfffffc12 <__eeprom_end+0xff7efc12>
      96:	cc cc       	rjmp	.-1640   	; 0xfffffa30 <__eeprom_end+0xff7efa30>
      98:	4c 3e       	cpi	r20, 0xEC	; 236
      9a:	00 00       	nop
      9c:	00 80       	ld	r0, Z
      9e:	be ab       	std	Y+54, r27	; 0x36
      a0:	aa aa       	std	Y+50, r10	; 0x32
      a2:	aa 3e       	cpi	r26, 0xEA	; 234
      a4:	00 00       	nop
      a6:	00 00       	nop
      a8:	bf 00       	.word	0x00bf	; ????
      aa:	00 00       	nop
      ac:	80 3f       	cpi	r24, 0xF0	; 240
      ae:	00 00       	nop
      b0:	00 00       	nop
      b2:	00 08       	sbc	r0, r0
      b4:	41 78       	andi	r20, 0x81	; 129
      b6:	d3 bb       	out	0x13, r29	; 19
      b8:	43 87       	std	Z+11, r20	; 0x0b
      ba:	d1 13       	cpse	r29, r17
      bc:	3d 19       	sub	r19, r13
      be:	0e 3c       	cpi	r16, 0xCE	; 206
      c0:	c3 bd       	out	0x23, r28	; 35
      c2:	42 82       	std	Z+2, r4	; 0x02
      c4:	ad 2b       	or	r26, r29
      c6:	3e 68       	ori	r19, 0x8E	; 142
      c8:	ec 82       	std	Y+4, r14	; 0x04
      ca:	76 be       	out	0x36, r7	; 54
      cc:	d9 8f       	std	Y+25, r29	; 0x19
      ce:	e1 a9       	ldd	r30, Z+49	; 0x31
      d0:	3e 4c       	sbci	r19, 0xCE	; 206
      d2:	80 ef       	ldi	r24, 0xF0	; 240
      d4:	ff be       	out	0x3f, r15	; 63
      d6:	01 c4       	rjmp	.+2050   	; 0x8da <combine_two+0x58>
      d8:	ff 7f       	andi	r31, 0xFF	; 255
      da:	3f 00       	.word	0x003f	; ????
      dc:	00 00       	nop
	...

000000e0 <__ctors_end>:
      e0:	11 24       	eor	r1, r1
      e2:	1f be       	out	0x3f, r1	; 63
      e4:	cf ef       	ldi	r28, 0xFF	; 255
      e6:	d8 e0       	ldi	r29, 0x08	; 8
      e8:	de bf       	out	0x3e, r29	; 62
      ea:	cd bf       	out	0x3d, r28	; 61

000000ec <__do_copy_data>:
      ec:	11 e0       	ldi	r17, 0x01	; 1
      ee:	a0 e0       	ldi	r26, 0x00	; 0
      f0:	b1 e0       	ldi	r27, 0x01	; 1
      f2:	e6 e1       	ldi	r30, 0x16	; 22
      f4:	f3 e2       	ldi	r31, 0x23	; 35
      f6:	02 c0       	rjmp	.+4      	; 0xfc <__do_copy_data+0x10>
      f8:	05 90       	lpm	r0, Z+
      fa:	0d 92       	st	X+, r0
      fc:	a4 33       	cpi	r26, 0x34	; 52
      fe:	b1 07       	cpc	r27, r17
     100:	d9 f7       	brne	.-10     	; 0xf8 <__do_copy_data+0xc>

00000102 <__do_clear_bss>:
     102:	21 e0       	ldi	r18, 0x01	; 1
     104:	a4 e3       	ldi	r26, 0x34	; 52
     106:	b1 e0       	ldi	r27, 0x01	; 1
     108:	01 c0       	rjmp	.+2      	; 0x10c <.do_clear_bss_start>

0000010a <.do_clear_bss_loop>:
     10a:	1d 92       	st	X+, r1

0000010c <.do_clear_bss_start>:
     10c:	ac 37       	cpi	r26, 0x7C	; 124
     10e:	b2 07       	cpc	r27, r18
     110:	e1 f7       	brne	.-8      	; 0x10a <.do_clear_bss_loop>
     112:	0e 94 ce 0c 	call	0x199c	; 0x199c <main>
     116:	0c 94 89 11 	jmp	0x2312	; 0x2312 <_exit>

0000011a <__bad_interrupt>:
     11a:	0c 94 00 00 	jmp	0	; 0x0 <__vectors>

0000011e <Unitize>:
		displayStrand();
		_delay_ms(100);
	}


}
     11e:	0f 93       	push	r16
     120:	1f 93       	push	r17
     122:	cf 93       	push	r28
     124:	df 93       	push	r29
     126:	ec 01       	movw	r28, r24
     128:	8c 01       	movw	r16, r24
     12a:	00 5e       	subi	r16, 0xE0	; 224
     12c:	1f 4f       	sbci	r17, 0xFF	; 255
     12e:	20 e0       	ldi	r18, 0x00	; 0
     130:	30 e0       	ldi	r19, 0x00	; 0
     132:	40 e0       	ldi	r20, 0x00	; 0
     134:	5e e3       	ldi	r21, 0x3E	; 62
     136:	68 81       	ld	r22, Y
     138:	79 81       	ldd	r23, Y+1	; 0x01
     13a:	8a 81       	ldd	r24, Y+2	; 0x02
     13c:	9b 81       	ldd	r25, Y+3	; 0x03
     13e:	0e 94 e4 0f 	call	0x1fc8	; 0x1fc8 <__mulsf3>
     142:	69 93       	st	Y+, r22
     144:	79 93       	st	Y+, r23
     146:	89 93       	st	Y+, r24
     148:	99 93       	st	Y+, r25
     14a:	c0 17       	cp	r28, r16
     14c:	d1 07       	cpc	r29, r17
     14e:	79 f7       	brne	.-34     	; 0x12e <Unitize+0x10>
     150:	df 91       	pop	r29
     152:	cf 91       	pop	r28
     154:	1f 91       	pop	r17
     156:	0f 91       	pop	r16
     158:	08 95       	ret

0000015a <multiplyF2>:
     15a:	2f 92       	push	r2
     15c:	3f 92       	push	r3
     15e:	4f 92       	push	r4
     160:	5f 92       	push	r5
     162:	6f 92       	push	r6
     164:	7f 92       	push	r7
     166:	8f 92       	push	r8
     168:	9f 92       	push	r9
     16a:	af 92       	push	r10
     16c:	bf 92       	push	r11
     16e:	cf 92       	push	r12
     170:	df 92       	push	r13
     172:	ef 92       	push	r14
     174:	ff 92       	push	r15
     176:	0f 93       	push	r16
     178:	1f 93       	push	r17
     17a:	cf 93       	push	r28
     17c:	df 93       	push	r29
     17e:	cd b7       	in	r28, 0x3d	; 61
     180:	de b7       	in	r29, 0x3e	; 62
     182:	64 97       	sbiw	r28, 0x14	; 20
     184:	0f b6       	in	r0, 0x3f	; 63
     186:	f8 94       	cli
     188:	de bf       	out	0x3e, r29	; 62
     18a:	0f be       	out	0x3f, r0	; 63
     18c:	cd bf       	out	0x3d, r28	; 61
     18e:	1c 01       	movw	r2, r24
     190:	89 82       	std	Y+1, r8	; 0x01
     192:	9a 82       	std	Y+2, r9	; 0x02
     194:	ab 82       	std	Y+3, r10	; 0x03
     196:	bc 82       	std	Y+4, r11	; 0x04
     198:	cd 82       	std	Y+5, r12	; 0x05
     19a:	de 82       	std	Y+6, r13	; 0x06
     19c:	ef 82       	std	Y+7, r14	; 0x07
     19e:	f8 86       	std	Y+8, r15	; 0x08
     1a0:	09 87       	std	Y+9, r16	; 0x09
     1a2:	1a 87       	std	Y+10, r17	; 0x0a
     1a4:	2b 87       	std	Y+11, r18	; 0x0b
     1a6:	3c 87       	std	Y+12, r19	; 0x0c
     1a8:	4d 87       	std	Y+13, r20	; 0x0d
     1aa:	5e 87       	std	Y+14, r21	; 0x0e
     1ac:	6f 87       	std	Y+15, r22	; 0x0f
     1ae:	78 8b       	std	Y+16, r23	; 0x10
     1b0:	89 81       	ldd	r24, Y+1	; 0x01
     1b2:	9a 81       	ldd	r25, Y+2	; 0x02
     1b4:	ab 81       	ldd	r26, Y+3	; 0x03
     1b6:	bc 81       	ldd	r27, Y+4	; 0x04
     1b8:	89 8b       	std	Y+17, r24	; 0x11
     1ba:	9a 8b       	std	Y+18, r25	; 0x12
     1bc:	ab 8b       	std	Y+19, r26	; 0x13
     1be:	bc 8b       	std	Y+20, r27	; 0x14
     1c0:	cd 80       	ldd	r12, Y+5	; 0x05
     1c2:	de 80       	ldd	r13, Y+6	; 0x06
     1c4:	ef 80       	ldd	r14, Y+7	; 0x07
     1c6:	f8 84       	ldd	r15, Y+8	; 0x08
     1c8:	49 84       	ldd	r4, Y+9	; 0x09
     1ca:	5a 84       	ldd	r5, Y+10	; 0x0a
     1cc:	6b 84       	ldd	r6, Y+11	; 0x0b
     1ce:	7c 84       	ldd	r7, Y+12	; 0x0c
     1d0:	8d 84       	ldd	r8, Y+13	; 0x0d
     1d2:	9e 84       	ldd	r9, Y+14	; 0x0e
     1d4:	af 84       	ldd	r10, Y+15	; 0x0f
     1d6:	b8 88       	ldd	r11, Y+16	; 0x10
     1d8:	9c 01       	movw	r18, r24
     1da:	ad 01       	movw	r20, r26
     1dc:	c3 01       	movw	r24, r6
     1de:	b2 01       	movw	r22, r4
     1e0:	0e 94 80 0d 	call	0x1b00	; 0x1b00 <__addsf3>
     1e4:	d1 01       	movw	r26, r2
     1e6:	6d 93       	st	X+, r22
     1e8:	7d 93       	st	X+, r23
     1ea:	8d 93       	st	X+, r24
     1ec:	9c 93       	st	X, r25
     1ee:	13 97       	sbiw	r26, 0x03	; 3
     1f0:	a5 01       	movw	r20, r10
     1f2:	94 01       	movw	r18, r8
     1f4:	c7 01       	movw	r24, r14
     1f6:	b6 01       	movw	r22, r12
     1f8:	0e 94 80 0d 	call	0x1b00	; 0x1b00 <__addsf3>
     1fc:	f1 01       	movw	r30, r2
     1fe:	64 83       	std	Z+4, r22	; 0x04
     200:	75 83       	std	Z+5, r23	; 0x05
     202:	86 83       	std	Z+6, r24	; 0x06
     204:	97 83       	std	Z+7, r25	; 0x07
     206:	a3 01       	movw	r20, r6
     208:	92 01       	movw	r18, r4
     20a:	69 89       	ldd	r22, Y+17	; 0x11
     20c:	7a 89       	ldd	r23, Y+18	; 0x12
     20e:	8b 89       	ldd	r24, Y+19	; 0x13
     210:	9c 89       	ldd	r25, Y+20	; 0x14
     212:	0e 94 7f 0d 	call	0x1afe	; 0x1afe <__subsf3>
     216:	d1 01       	movw	r26, r2
     218:	18 96       	adiw	r26, 0x08	; 8
     21a:	6d 93       	st	X+, r22
     21c:	7d 93       	st	X+, r23
     21e:	8d 93       	st	X+, r24
     220:	9c 93       	st	X, r25
     222:	1b 97       	sbiw	r26, 0x0b	; 11
     224:	a5 01       	movw	r20, r10
     226:	94 01       	movw	r18, r8
     228:	c7 01       	movw	r24, r14
     22a:	b6 01       	movw	r22, r12
     22c:	0e 94 7f 0d 	call	0x1afe	; 0x1afe <__subsf3>
     230:	f1 01       	movw	r30, r2
     232:	64 87       	std	Z+12, r22	; 0x0c
     234:	75 87       	std	Z+13, r23	; 0x0d
     236:	86 87       	std	Z+14, r24	; 0x0e
     238:	97 87       	std	Z+15, r25	; 0x0f
     23a:	c1 01       	movw	r24, r2
     23c:	64 96       	adiw	r28, 0x14	; 20
     23e:	0f b6       	in	r0, 0x3f	; 63
     240:	f8 94       	cli
     242:	de bf       	out	0x3e, r29	; 62
     244:	0f be       	out	0x3f, r0	; 63
     246:	cd bf       	out	0x3d, r28	; 61
     248:	df 91       	pop	r29
     24a:	cf 91       	pop	r28
     24c:	1f 91       	pop	r17
     24e:	0f 91       	pop	r16
     250:	ff 90       	pop	r15
     252:	ef 90       	pop	r14
     254:	df 90       	pop	r13
     256:	cf 90       	pop	r12
     258:	bf 90       	pop	r11
     25a:	af 90       	pop	r10
     25c:	9f 90       	pop	r9
     25e:	8f 90       	pop	r8
     260:	7f 90       	pop	r7
     262:	6f 90       	pop	r6
     264:	5f 90       	pop	r5
     266:	4f 90       	pop	r4
     268:	3f 90       	pop	r3
     26a:	2f 90       	pop	r2
     26c:	08 95       	ret

0000026e <populate_8>:
     26e:	ef 92       	push	r14
     270:	ff 92       	push	r15
     272:	0f 93       	push	r16
     274:	1f 93       	push	r17
     276:	cf 93       	push	r28
     278:	df 93       	push	r29
     27a:	ea 01       	movw	r28, r20
     27c:	79 01       	movw	r14, r18
     27e:	f8 01       	movw	r30, r16
     280:	00 81       	ld	r16, Z
     282:	11 81       	ldd	r17, Z+1	; 0x01
     284:	22 81       	ldd	r18, Z+2	; 0x02
     286:	33 81       	ldd	r19, Z+3	; 0x03
     288:	dc 01       	movw	r26, r24
     28a:	0d 93       	st	X+, r16
     28c:	1d 93       	st	X+, r17
     28e:	2d 93       	st	X+, r18
     290:	3c 93       	st	X, r19
     292:	13 97       	sbiw	r26, 0x03	; 3
     294:	14 96       	adiw	r26, 0x04	; 4
     296:	1d 92       	st	X+, r1
     298:	1d 92       	st	X+, r1
     29a:	1d 92       	st	X+, r1
     29c:	1c 92       	st	X, r1
     29e:	17 97       	sbiw	r26, 0x07	; 7
     2a0:	00 89       	ldd	r16, Z+16	; 0x10
     2a2:	11 89       	ldd	r17, Z+17	; 0x11
     2a4:	22 89       	ldd	r18, Z+18	; 0x12
     2a6:	33 89       	ldd	r19, Z+19	; 0x13
     2a8:	18 96       	adiw	r26, 0x08	; 8
     2aa:	0d 93       	st	X+, r16
     2ac:	1d 93       	st	X+, r17
     2ae:	2d 93       	st	X+, r18
     2b0:	3c 93       	st	X, r19
     2b2:	1b 97       	sbiw	r26, 0x0b	; 11
     2b4:	1c 96       	adiw	r26, 0x0c	; 12
     2b6:	1d 92       	st	X+, r1
     2b8:	1d 92       	st	X+, r1
     2ba:	1d 92       	st	X+, r1
     2bc:	1c 92       	st	X, r1
     2be:	1f 97       	sbiw	r26, 0x0f	; 15
     2c0:	00 85       	ldd	r16, Z+8	; 0x08
     2c2:	11 85       	ldd	r17, Z+9	; 0x09
     2c4:	22 85       	ldd	r18, Z+10	; 0x0a
     2c6:	33 85       	ldd	r19, Z+11	; 0x0b
     2c8:	db 01       	movw	r26, r22
     2ca:	0d 93       	st	X+, r16
     2cc:	1d 93       	st	X+, r17
     2ce:	2d 93       	st	X+, r18
     2d0:	3c 93       	st	X, r19
     2d2:	13 97       	sbiw	r26, 0x03	; 3
     2d4:	14 96       	adiw	r26, 0x04	; 4
     2d6:	1d 92       	st	X+, r1
     2d8:	1d 92       	st	X+, r1
     2da:	1d 92       	st	X+, r1
     2dc:	1c 92       	st	X, r1
     2de:	17 97       	sbiw	r26, 0x07	; 7
     2e0:	00 8d       	ldd	r16, Z+24	; 0x18
     2e2:	11 8d       	ldd	r17, Z+25	; 0x19
     2e4:	22 8d       	ldd	r18, Z+26	; 0x1a
     2e6:	33 8d       	ldd	r19, Z+27	; 0x1b
     2e8:	18 96       	adiw	r26, 0x08	; 8
     2ea:	0d 93       	st	X+, r16
     2ec:	1d 93       	st	X+, r17
     2ee:	2d 93       	st	X+, r18
     2f0:	3c 93       	st	X, r19
     2f2:	1b 97       	sbiw	r26, 0x0b	; 11
     2f4:	1c 96       	adiw	r26, 0x0c	; 12
     2f6:	1d 92       	st	X+, r1
     2f8:	1d 92       	st	X+, r1
     2fa:	1d 92       	st	X+, r1
     2fc:	1c 92       	st	X, r1
     2fe:	1f 97       	sbiw	r26, 0x0f	; 15
     300:	44 81       	ldd	r20, Z+4	; 0x04
     302:	55 81       	ldd	r21, Z+5	; 0x05
     304:	66 81       	ldd	r22, Z+6	; 0x06
     306:	77 81       	ldd	r23, Z+7	; 0x07
     308:	48 83       	st	Y, r20
     30a:	59 83       	std	Y+1, r21	; 0x01
     30c:	6a 83       	std	Y+2, r22	; 0x02
     30e:	7b 83       	std	Y+3, r23	; 0x03
     310:	1c 82       	std	Y+4, r1	; 0x04
     312:	1d 82       	std	Y+5, r1	; 0x05
     314:	1e 82       	std	Y+6, r1	; 0x06
     316:	1f 82       	std	Y+7, r1	; 0x07
     318:	44 89       	ldd	r20, Z+20	; 0x14
     31a:	55 89       	ldd	r21, Z+21	; 0x15
     31c:	66 89       	ldd	r22, Z+22	; 0x16
     31e:	77 89       	ldd	r23, Z+23	; 0x17
     320:	48 87       	std	Y+8, r20	; 0x08
     322:	59 87       	std	Y+9, r21	; 0x09
     324:	6a 87       	std	Y+10, r22	; 0x0a
     326:	7b 87       	std	Y+11, r23	; 0x0b
     328:	1c 86       	std	Y+12, r1	; 0x0c
     32a:	1d 86       	std	Y+13, r1	; 0x0d
     32c:	1e 86       	std	Y+14, r1	; 0x0e
     32e:	1f 86       	std	Y+15, r1	; 0x0f
     330:	44 85       	ldd	r20, Z+12	; 0x0c
     332:	55 85       	ldd	r21, Z+13	; 0x0d
     334:	66 85       	ldd	r22, Z+14	; 0x0e
     336:	77 85       	ldd	r23, Z+15	; 0x0f
     338:	d7 01       	movw	r26, r14
     33a:	4d 93       	st	X+, r20
     33c:	5d 93       	st	X+, r21
     33e:	6d 93       	st	X+, r22
     340:	7c 93       	st	X, r23
     342:	13 97       	sbiw	r26, 0x03	; 3
     344:	14 96       	adiw	r26, 0x04	; 4
     346:	1d 92       	st	X+, r1
     348:	1d 92       	st	X+, r1
     34a:	1d 92       	st	X+, r1
     34c:	1c 92       	st	X, r1
     34e:	17 97       	sbiw	r26, 0x07	; 7
     350:	44 8d       	ldd	r20, Z+28	; 0x1c
     352:	55 8d       	ldd	r21, Z+29	; 0x1d
     354:	66 8d       	ldd	r22, Z+30	; 0x1e
     356:	77 8d       	ldd	r23, Z+31	; 0x1f
     358:	f7 01       	movw	r30, r14
     35a:	40 87       	std	Z+8, r20	; 0x08
     35c:	51 87       	std	Z+9, r21	; 0x09
     35e:	62 87       	std	Z+10, r22	; 0x0a
     360:	73 87       	std	Z+11, r23	; 0x0b
     362:	1c 96       	adiw	r26, 0x0c	; 12
     364:	1d 92       	st	X+, r1
     366:	1d 92       	st	X+, r1
     368:	1d 92       	st	X+, r1
     36a:	1c 92       	st	X, r1
     36c:	1f 97       	sbiw	r26, 0x0f	; 15
     36e:	df 91       	pop	r29
     370:	cf 91       	pop	r28
     372:	1f 91       	pop	r17
     374:	0f 91       	pop	r16
     376:	ff 90       	pop	r15
     378:	ef 90       	pop	r14
     37a:	08 95       	ret

0000037c <reverse>:
     37c:	9c 01       	movw	r18, r24
     37e:	36 95       	lsr	r19
     380:	27 95       	ror	r18
     382:	21 15       	cp	r18, r1
     384:	31 05       	cpc	r19, r1
     386:	89 f0       	breq	.+34     	; 0x3aa <reverse+0x2e>
     388:	4f e0       	ldi	r20, 0x0F	; 15
     38a:	50 e0       	ldi	r21, 0x00	; 0
     38c:	88 0f       	add	r24, r24
     38e:	99 1f       	adc	r25, r25
     390:	b9 01       	movw	r22, r18
     392:	61 70       	andi	r22, 0x01	; 1
     394:	77 27       	eor	r23, r23
     396:	86 2b       	or	r24, r22
     398:	97 2b       	or	r25, r23
     39a:	41 50       	subi	r20, 0x01	; 1
     39c:	51 09       	sbc	r21, r1
     39e:	36 95       	lsr	r19
     3a0:	27 95       	ror	r18
     3a2:	21 15       	cp	r18, r1
     3a4:	31 05       	cpc	r19, r1
     3a6:	91 f7       	brne	.-28     	; 0x38c <reverse+0x10>
     3a8:	02 c0       	rjmp	.+4      	; 0x3ae <reverse+0x32>
     3aa:	4f e0       	ldi	r20, 0x0F	; 15
     3ac:	50 e0       	ldi	r21, 0x00	; 0
     3ae:	02 c0       	rjmp	.+4      	; 0x3b4 <reverse+0x38>
     3b0:	88 0f       	add	r24, r24
     3b2:	99 1f       	adc	r25, r25
     3b4:	4a 95       	dec	r20
     3b6:	e2 f7       	brpl	.-8      	; 0x3b0 <reverse+0x34>
     3b8:	08 95       	ret

000003ba <populate>:
     3ba:	af 92       	push	r10
     3bc:	bf 92       	push	r11
     3be:	cf 92       	push	r12
     3c0:	df 92       	push	r13
     3c2:	ef 92       	push	r14
     3c4:	ff 92       	push	r15
     3c6:	0f 93       	push	r16
     3c8:	1f 93       	push	r17
     3ca:	cf 93       	push	r28
     3cc:	df 93       	push	r29
     3ce:	08 2f       	mov	r16, r24
     3d0:	19 2f       	mov	r17, r25
     3d2:	6b 01       	movw	r12, r22
     3d4:	5a 01       	movw	r10, r20
     3d6:	60 fd       	sbrc	r22, 0
     3d8:	5e c0       	rjmp	.+188    	; 0x496 <__LOCK_REGION_LENGTH__+0x96>
     3da:	80 e0       	ldi	r24, 0x00	; 0
     3dc:	90 e0       	ldi	r25, 0x00	; 0
     3de:	0e 94 9e 0e 	call	0x1d3c	; 0x1d3c <__floatunsisf>
     3e2:	0e 94 9c 0f 	call	0x1f38	; 0x1f38 <log>
     3e6:	28 e1       	ldi	r18, 0x18	; 24
     3e8:	32 e7       	ldi	r19, 0x72	; 114
     3ea:	41 e3       	ldi	r20, 0x31	; 49
     3ec:	5f e3       	ldi	r21, 0x3F	; 63
     3ee:	0e 94 f6 0d 	call	0x1bec	; 0x1bec <__divsf3>
     3f2:	0e 94 68 0e 	call	0x1cd0	; 0x1cd0 <__fixsfsi>
     3f6:	20 e1       	ldi	r18, 0x10	; 16
     3f8:	30 e0       	ldi	r19, 0x00	; 0
     3fa:	79 01       	movw	r14, r18
     3fc:	e6 1a       	sub	r14, r22
     3fe:	f7 0a       	sbc	r15, r23
     400:	d6 94       	lsr	r13
     402:	c7 94       	ror	r12
     404:	c1 14       	cp	r12, r1
     406:	d1 04       	cpc	r13, r1
     408:	09 f4       	brne	.+2      	; 0x40c <__LOCK_REGION_LENGTH__+0xc>
     40a:	48 c0       	rjmp	.+144    	; 0x49c <__LOCK_REGION_LENGTH__+0x9c>
     40c:	c0 2f       	mov	r28, r16
     40e:	d1 2f       	mov	r29, r17
     410:	00 e0       	ldi	r16, 0x00	; 0
     412:	10 e0       	ldi	r17, 0x00	; 0
     414:	c8 01       	movw	r24, r16
     416:	0e 94 be 01 	call	0x37c	; 0x37c <reverse>
     41a:	0e 2c       	mov	r0, r14
     41c:	02 c0       	rjmp	.+4      	; 0x422 <__LOCK_REGION_LENGTH__+0x22>
     41e:	96 95       	lsr	r25
     420:	87 95       	ror	r24
     422:	0a 94       	dec	r0
     424:	e2 f7       	brpl	.-8      	; 0x41e <__LOCK_REGION_LENGTH__+0x1e>
     426:	fc 01       	movw	r30, r24
     428:	ee 0f       	add	r30, r30
     42a:	ff 1f       	adc	r31, r31
     42c:	ee 0f       	add	r30, r30
     42e:	ff 1f       	adc	r31, r31
     430:	ea 0d       	add	r30, r10
     432:	fb 1d       	adc	r31, r11
     434:	80 81       	ld	r24, Z
     436:	91 81       	ldd	r25, Z+1	; 0x01
     438:	a2 81       	ldd	r26, Z+2	; 0x02
     43a:	b3 81       	ldd	r27, Z+3	; 0x03
     43c:	88 83       	st	Y, r24
     43e:	99 83       	std	Y+1, r25	; 0x01
     440:	aa 83       	std	Y+2, r26	; 0x02
     442:	bb 83       	std	Y+3, r27	; 0x03
     444:	1c 82       	std	Y+4, r1	; 0x04
     446:	1d 82       	std	Y+5, r1	; 0x05
     448:	1e 82       	std	Y+6, r1	; 0x06
     44a:	1f 82       	std	Y+7, r1	; 0x07
     44c:	0f 5f       	subi	r16, 0xFF	; 255
     44e:	1f 4f       	sbci	r17, 0xFF	; 255
     450:	c8 01       	movw	r24, r16
     452:	0e 94 be 01 	call	0x37c	; 0x37c <reverse>
     456:	0e 2c       	mov	r0, r14
     458:	02 c0       	rjmp	.+4      	; 0x45e <__LOCK_REGION_LENGTH__+0x5e>
     45a:	96 95       	lsr	r25
     45c:	87 95       	ror	r24
     45e:	0a 94       	dec	r0
     460:	e2 f7       	brpl	.-8      	; 0x45a <__LOCK_REGION_LENGTH__+0x5a>
     462:	fc 01       	movw	r30, r24
     464:	ee 0f       	add	r30, r30
     466:	ff 1f       	adc	r31, r31
     468:	ee 0f       	add	r30, r30
     46a:	ff 1f       	adc	r31, r31
     46c:	ea 0d       	add	r30, r10
     46e:	fb 1d       	adc	r31, r11
     470:	80 81       	ld	r24, Z
     472:	91 81       	ldd	r25, Z+1	; 0x01
     474:	a2 81       	ldd	r26, Z+2	; 0x02
     476:	b3 81       	ldd	r27, Z+3	; 0x03
     478:	88 87       	std	Y+8, r24	; 0x08
     47a:	99 87       	std	Y+9, r25	; 0x09
     47c:	aa 87       	std	Y+10, r26	; 0x0a
     47e:	bb 87       	std	Y+11, r27	; 0x0b
     480:	1c 86       	std	Y+12, r1	; 0x0c
     482:	1d 86       	std	Y+13, r1	; 0x0d
     484:	1e 86       	std	Y+14, r1	; 0x0e
     486:	1f 86       	std	Y+15, r1	; 0x0f
     488:	68 96       	adiw	r28, 0x18	; 24
     48a:	0c 15       	cp	r16, r12
     48c:	1d 05       	cpc	r17, r13
     48e:	11 f6       	brne	.-124    	; 0x414 <__LOCK_REGION_LENGTH__+0x14>
     490:	80 e0       	ldi	r24, 0x00	; 0
     492:	90 e0       	ldi	r25, 0x00	; 0
     494:	05 c0       	rjmp	.+10     	; 0x4a0 <__LOCK_REGION_LENGTH__+0xa0>
     496:	81 e0       	ldi	r24, 0x01	; 1
     498:	90 e0       	ldi	r25, 0x00	; 0
     49a:	02 c0       	rjmp	.+4      	; 0x4a0 <__LOCK_REGION_LENGTH__+0xa0>
     49c:	80 e0       	ldi	r24, 0x00	; 0
     49e:	90 e0       	ldi	r25, 0x00	; 0
     4a0:	df 91       	pop	r29
     4a2:	cf 91       	pop	r28
     4a4:	1f 91       	pop	r17
     4a6:	0f 91       	pop	r16
     4a8:	ff 90       	pop	r15
     4aa:	ef 90       	pop	r14
     4ac:	df 90       	pop	r13
     4ae:	cf 90       	pop	r12
     4b0:	bf 90       	pop	r11
     4b2:	af 90       	pop	r10
     4b4:	08 95       	ret

000004b6 <v_Add2>:
     4b6:	2f 92       	push	r2
     4b8:	3f 92       	push	r3
     4ba:	4f 92       	push	r4
     4bc:	5f 92       	push	r5
     4be:	6f 92       	push	r6
     4c0:	7f 92       	push	r7
     4c2:	8f 92       	push	r8
     4c4:	9f 92       	push	r9
     4c6:	af 92       	push	r10
     4c8:	bf 92       	push	r11
     4ca:	cf 92       	push	r12
     4cc:	df 92       	push	r13
     4ce:	ef 92       	push	r14
     4d0:	ff 92       	push	r15
     4d2:	0f 93       	push	r16
     4d4:	1f 93       	push	r17
     4d6:	cf 93       	push	r28
     4d8:	df 93       	push	r29
     4da:	cd b7       	in	r28, 0x3d	; 61
     4dc:	de b7       	in	r29, 0x3e	; 62
     4de:	60 97       	sbiw	r28, 0x10	; 16
     4e0:	0f b6       	in	r0, 0x3f	; 63
     4e2:	f8 94       	cli
     4e4:	de bf       	out	0x3e, r29	; 62
     4e6:	0f be       	out	0x3f, r0	; 63
     4e8:	cd bf       	out	0x3d, r28	; 61
     4ea:	3c 01       	movw	r6, r24
     4ec:	89 82       	std	Y+1, r8	; 0x01
     4ee:	9a 82       	std	Y+2, r9	; 0x02
     4f0:	ab 82       	std	Y+3, r10	; 0x03
     4f2:	bc 82       	std	Y+4, r11	; 0x04
     4f4:	cd 82       	std	Y+5, r12	; 0x05
     4f6:	de 82       	std	Y+6, r13	; 0x06
     4f8:	ef 82       	std	Y+7, r14	; 0x07
     4fa:	f8 86       	std	Y+8, r15	; 0x08
     4fc:	09 87       	std	Y+9, r16	; 0x09
     4fe:	1a 87       	std	Y+10, r17	; 0x0a
     500:	2b 87       	std	Y+11, r18	; 0x0b
     502:	3c 87       	std	Y+12, r19	; 0x0c
     504:	4d 87       	std	Y+13, r20	; 0x0d
     506:	5e 87       	std	Y+14, r21	; 0x0e
     508:	6f 87       	std	Y+15, r22	; 0x0f
     50a:	78 8b       	std	Y+16, r23	; 0x10
     50c:	29 a5       	ldd	r18, Y+41	; 0x29
     50e:	3a a5       	ldd	r19, Y+42	; 0x2a
     510:	4b a5       	ldd	r20, Y+43	; 0x2b
     512:	5c a5       	ldd	r21, Y+44	; 0x2c
     514:	6d 81       	ldd	r22, Y+5	; 0x05
     516:	7e 81       	ldd	r23, Y+6	; 0x06
     518:	8f 81       	ldd	r24, Y+7	; 0x07
     51a:	98 85       	ldd	r25, Y+8	; 0x08
     51c:	0e 94 80 0d 	call	0x1b00	; 0x1b00 <__addsf3>
     520:	1b 01       	movw	r2, r22
     522:	2c 01       	movw	r4, r24
     524:	2d a5       	ldd	r18, Y+45	; 0x2d
     526:	3e a5       	ldd	r19, Y+46	; 0x2e
     528:	4f a5       	ldd	r20, Y+47	; 0x2f
     52a:	58 a9       	ldd	r21, Y+48	; 0x30
     52c:	69 85       	ldd	r22, Y+9	; 0x09
     52e:	7a 85       	ldd	r23, Y+10	; 0x0a
     530:	8b 85       	ldd	r24, Y+11	; 0x0b
     532:	9c 85       	ldd	r25, Y+12	; 0x0c
     534:	0e 94 80 0d 	call	0x1b00	; 0x1b00 <__addsf3>
     538:	4b 01       	movw	r8, r22
     53a:	5c 01       	movw	r10, r24
     53c:	29 a9       	ldd	r18, Y+49	; 0x31
     53e:	3a a9       	ldd	r19, Y+50	; 0x32
     540:	4b a9       	ldd	r20, Y+51	; 0x33
     542:	5c a9       	ldd	r21, Y+52	; 0x34
     544:	6d 85       	ldd	r22, Y+13	; 0x0d
     546:	7e 85       	ldd	r23, Y+14	; 0x0e
     548:	8f 85       	ldd	r24, Y+15	; 0x0f
     54a:	98 89       	ldd	r25, Y+16	; 0x10
     54c:	0e 94 80 0d 	call	0x1b00	; 0x1b00 <__addsf3>
     550:	6b 01       	movw	r12, r22
     552:	7c 01       	movw	r14, r24
     554:	2d a1       	ldd	r18, Y+37	; 0x25
     556:	3e a1       	ldd	r19, Y+38	; 0x26
     558:	4f a1       	ldd	r20, Y+39	; 0x27
     55a:	58 a5       	ldd	r21, Y+40	; 0x28
     55c:	69 81       	ldd	r22, Y+1	; 0x01
     55e:	7a 81       	ldd	r23, Y+2	; 0x02
     560:	8b 81       	ldd	r24, Y+3	; 0x03
     562:	9c 81       	ldd	r25, Y+4	; 0x04
     564:	0e 94 80 0d 	call	0x1b00	; 0x1b00 <__addsf3>
     568:	f3 01       	movw	r30, r6
     56a:	60 83       	st	Z, r22
     56c:	71 83       	std	Z+1, r23	; 0x01
     56e:	82 83       	std	Z+2, r24	; 0x02
     570:	93 83       	std	Z+3, r25	; 0x03
     572:	24 82       	std	Z+4, r2	; 0x04
     574:	35 82       	std	Z+5, r3	; 0x05
     576:	46 82       	std	Z+6, r4	; 0x06
     578:	57 82       	std	Z+7, r5	; 0x07
     57a:	80 86       	std	Z+8, r8	; 0x08
     57c:	91 86       	std	Z+9, r9	; 0x09
     57e:	a2 86       	std	Z+10, r10	; 0x0a
     580:	b3 86       	std	Z+11, r11	; 0x0b
     582:	c4 86       	std	Z+12, r12	; 0x0c
     584:	d5 86       	std	Z+13, r13	; 0x0d
     586:	e6 86       	std	Z+14, r14	; 0x0e
     588:	f7 86       	std	Z+15, r15	; 0x0f
     58a:	c3 01       	movw	r24, r6
     58c:	60 96       	adiw	r28, 0x10	; 16
     58e:	0f b6       	in	r0, 0x3f	; 63
     590:	f8 94       	cli
     592:	de bf       	out	0x3e, r29	; 62
     594:	0f be       	out	0x3f, r0	; 63
     596:	cd bf       	out	0x3d, r28	; 61
     598:	df 91       	pop	r29
     59a:	cf 91       	pop	r28
     59c:	1f 91       	pop	r17
     59e:	0f 91       	pop	r16
     5a0:	ff 90       	pop	r15
     5a2:	ef 90       	pop	r14
     5a4:	df 90       	pop	r13
     5a6:	cf 90       	pop	r12
     5a8:	bf 90       	pop	r11
     5aa:	af 90       	pop	r10
     5ac:	9f 90       	pop	r9
     5ae:	8f 90       	pop	r8
     5b0:	7f 90       	pop	r7
     5b2:	6f 90       	pop	r6
     5b4:	5f 90       	pop	r5
     5b6:	4f 90       	pop	r4
     5b8:	3f 90       	pop	r3
     5ba:	2f 90       	pop	r2
     5bc:	08 95       	ret

000005be <v_Add4>:
     5be:	4f 92       	push	r4
     5c0:	5f 92       	push	r5
     5c2:	6f 92       	push	r6
     5c4:	7f 92       	push	r7
     5c6:	8f 92       	push	r8
     5c8:	9f 92       	push	r9
     5ca:	af 92       	push	r10
     5cc:	bf 92       	push	r11
     5ce:	cf 92       	push	r12
     5d0:	df 92       	push	r13
     5d2:	ef 92       	push	r14
     5d4:	ff 92       	push	r15
     5d6:	0f 93       	push	r16
     5d8:	1f 93       	push	r17
     5da:	cf 93       	push	r28
     5dc:	df 93       	push	r29
     5de:	cd b7       	in	r28, 0x3d	; 61
     5e0:	de b7       	in	r29, 0x3e	; 62
     5e2:	60 97       	sbiw	r28, 0x10	; 16
     5e4:	0f b6       	in	r0, 0x3f	; 63
     5e6:	f8 94       	cli
     5e8:	de bf       	out	0x3e, r29	; 62
     5ea:	0f be       	out	0x3f, r0	; 63
     5ec:	cd bf       	out	0x3d, r28	; 61
     5ee:	8c 01       	movw	r16, r24
     5f0:	2b 96       	adiw	r28, 0x0b	; 11
     5f2:	2c ad       	ldd	r18, Y+60	; 0x3c
     5f4:	3d ad       	ldd	r19, Y+61	; 0x3d
     5f6:	4e ad       	ldd	r20, Y+62	; 0x3e
     5f8:	5f ad       	ldd	r21, Y+63	; 0x3f
     5fa:	2b 97       	sbiw	r28, 0x0b	; 11
     5fc:	6f a1       	ldd	r22, Y+39	; 0x27
     5fe:	78 a5       	ldd	r23, Y+40	; 0x28
     600:	89 a5       	ldd	r24, Y+41	; 0x29
     602:	9a a5       	ldd	r25, Y+42	; 0x2a
     604:	0e 94 80 0d 	call	0x1b00	; 0x1b00 <__addsf3>
     608:	2b 01       	movw	r4, r22
     60a:	3c 01       	movw	r6, r24
     60c:	2b a5       	ldd	r18, Y+43	; 0x2b
     60e:	3c a5       	ldd	r19, Y+44	; 0x2c
     610:	4d a5       	ldd	r20, Y+45	; 0x2d
     612:	5e a5       	ldd	r21, Y+46	; 0x2e
     614:	2f 96       	adiw	r28, 0x0f	; 15
     616:	6c ad       	ldd	r22, Y+60	; 0x3c
     618:	7d ad       	ldd	r23, Y+61	; 0x3d
     61a:	8e ad       	ldd	r24, Y+62	; 0x3e
     61c:	9f ad       	ldd	r25, Y+63	; 0x3f
     61e:	2f 97       	sbiw	r28, 0x0f	; 15
     620:	0e 94 80 0d 	call	0x1b00	; 0x1b00 <__addsf3>
     624:	4b 01       	movw	r8, r22
     626:	5c 01       	movw	r10, r24
     628:	2f a5       	ldd	r18, Y+47	; 0x2f
     62a:	38 a9       	ldd	r19, Y+48	; 0x30
     62c:	49 a9       	ldd	r20, Y+49	; 0x31
     62e:	5a a9       	ldd	r21, Y+50	; 0x32
     630:	63 96       	adiw	r28, 0x13	; 19
     632:	6c ad       	ldd	r22, Y+60	; 0x3c
     634:	7d ad       	ldd	r23, Y+61	; 0x3d
     636:	8e ad       	ldd	r24, Y+62	; 0x3e
     638:	9f ad       	ldd	r25, Y+63	; 0x3f
     63a:	63 97       	sbiw	r28, 0x13	; 19
     63c:	0e 94 80 0d 	call	0x1b00	; 0x1b00 <__addsf3>
     640:	69 83       	std	Y+1, r22	; 0x01
     642:	7a 83       	std	Y+2, r23	; 0x02
     644:	8b 83       	std	Y+3, r24	; 0x03
     646:	9c 83       	std	Y+4, r25	; 0x04
     648:	67 96       	adiw	r28, 0x17	; 23
     64a:	2c ad       	ldd	r18, Y+60	; 0x3c
     64c:	3d ad       	ldd	r19, Y+61	; 0x3d
     64e:	4e ad       	ldd	r20, Y+62	; 0x3e
     650:	5f ad       	ldd	r21, Y+63	; 0x3f
     652:	67 97       	sbiw	r28, 0x17	; 23
     654:	6b a9       	ldd	r22, Y+51	; 0x33
     656:	7c a9       	ldd	r23, Y+52	; 0x34
     658:	8d a9       	ldd	r24, Y+53	; 0x35
     65a:	9e a9       	ldd	r25, Y+54	; 0x36
     65c:	0e 94 80 0d 	call	0x1b00	; 0x1b00 <__addsf3>
     660:	6d 83       	std	Y+5, r22	; 0x05
     662:	7e 83       	std	Y+6, r23	; 0x06
     664:	8f 83       	std	Y+7, r24	; 0x07
     666:	98 87       	std	Y+8, r25	; 0x08
     668:	6b 96       	adiw	r28, 0x1b	; 27
     66a:	2c ad       	ldd	r18, Y+60	; 0x3c
     66c:	3d ad       	ldd	r19, Y+61	; 0x3d
     66e:	4e ad       	ldd	r20, Y+62	; 0x3e
     670:	5f ad       	ldd	r21, Y+63	; 0x3f
     672:	6b 97       	sbiw	r28, 0x1b	; 27
     674:	6f a9       	ldd	r22, Y+55	; 0x37
     676:	78 ad       	ldd	r23, Y+56	; 0x38
     678:	89 ad       	ldd	r24, Y+57	; 0x39
     67a:	9a ad       	ldd	r25, Y+58	; 0x3a
     67c:	0e 94 80 0d 	call	0x1b00	; 0x1b00 <__addsf3>
     680:	69 87       	std	Y+9, r22	; 0x09
     682:	7a 87       	std	Y+10, r23	; 0x0a
     684:	8b 87       	std	Y+11, r24	; 0x0b
     686:	9c 87       	std	Y+12, r25	; 0x0c
     688:	6f 96       	adiw	r28, 0x1f	; 31
     68a:	2c ad       	ldd	r18, Y+60	; 0x3c
     68c:	3d ad       	ldd	r19, Y+61	; 0x3d
     68e:	4e ad       	ldd	r20, Y+62	; 0x3e
     690:	5f ad       	ldd	r21, Y+63	; 0x3f
     692:	6f 97       	sbiw	r28, 0x1f	; 31
     694:	6b ad       	ldd	r22, Y+59	; 0x3b
     696:	7c ad       	ldd	r23, Y+60	; 0x3c
     698:	8d ad       	ldd	r24, Y+61	; 0x3d
     69a:	9e ad       	ldd	r25, Y+62	; 0x3e
     69c:	0e 94 80 0d 	call	0x1b00	; 0x1b00 <__addsf3>
     6a0:	6d 87       	std	Y+13, r22	; 0x0d
     6a2:	7e 87       	std	Y+14, r23	; 0x0e
     6a4:	8f 87       	std	Y+15, r24	; 0x0f
     6a6:	98 8b       	std	Y+16, r25	; 0x10
     6a8:	a3 96       	adiw	r28, 0x23	; 35
     6aa:	2c ad       	ldd	r18, Y+60	; 0x3c
     6ac:	3d ad       	ldd	r19, Y+61	; 0x3d
     6ae:	4e ad       	ldd	r20, Y+62	; 0x3e
     6b0:	5f ad       	ldd	r21, Y+63	; 0x3f
     6b2:	a3 97       	sbiw	r28, 0x23	; 35
     6b4:	23 96       	adiw	r28, 0x03	; 3
     6b6:	6c ad       	ldd	r22, Y+60	; 0x3c
     6b8:	7d ad       	ldd	r23, Y+61	; 0x3d
     6ba:	8e ad       	ldd	r24, Y+62	; 0x3e
     6bc:	9f ad       	ldd	r25, Y+63	; 0x3f
     6be:	23 97       	sbiw	r28, 0x03	; 3
     6c0:	0e 94 80 0d 	call	0x1b00	; 0x1b00 <__addsf3>
     6c4:	6b 01       	movw	r12, r22
     6c6:	7c 01       	movw	r14, r24
     6c8:	27 96       	adiw	r28, 0x07	; 7
     6ca:	2c ad       	ldd	r18, Y+60	; 0x3c
     6cc:	3d ad       	ldd	r19, Y+61	; 0x3d
     6ce:	4e ad       	ldd	r20, Y+62	; 0x3e
     6d0:	5f ad       	ldd	r21, Y+63	; 0x3f
     6d2:	27 97       	sbiw	r28, 0x07	; 7
     6d4:	6b a1       	ldd	r22, Y+35	; 0x23
     6d6:	7c a1       	ldd	r23, Y+36	; 0x24
     6d8:	8d a1       	ldd	r24, Y+37	; 0x25
     6da:	9e a1       	ldd	r25, Y+38	; 0x26
     6dc:	0e 94 80 0d 	call	0x1b00	; 0x1b00 <__addsf3>
     6e0:	d8 01       	movw	r26, r16
     6e2:	6d 93       	st	X+, r22
     6e4:	7d 93       	st	X+, r23
     6e6:	8d 93       	st	X+, r24
     6e8:	9c 93       	st	X, r25
     6ea:	13 97       	sbiw	r26, 0x03	; 3
     6ec:	f8 01       	movw	r30, r16
     6ee:	44 82       	std	Z+4, r4	; 0x04
     6f0:	55 82       	std	Z+5, r5	; 0x05
     6f2:	66 82       	std	Z+6, r6	; 0x06
     6f4:	77 82       	std	Z+7, r7	; 0x07
     6f6:	18 96       	adiw	r26, 0x08	; 8
     6f8:	8d 92       	st	X+, r8
     6fa:	9d 92       	st	X+, r9
     6fc:	ad 92       	st	X+, r10
     6fe:	bc 92       	st	X, r11
     700:	1b 97       	sbiw	r26, 0x0b	; 11
     702:	89 81       	ldd	r24, Y+1	; 0x01
     704:	9a 81       	ldd	r25, Y+2	; 0x02
     706:	ab 81       	ldd	r26, Y+3	; 0x03
     708:	bc 81       	ldd	r27, Y+4	; 0x04
     70a:	84 87       	std	Z+12, r24	; 0x0c
     70c:	95 87       	std	Z+13, r25	; 0x0d
     70e:	a6 87       	std	Z+14, r26	; 0x0e
     710:	b7 87       	std	Z+15, r27	; 0x0f
     712:	8d 81       	ldd	r24, Y+5	; 0x05
     714:	9e 81       	ldd	r25, Y+6	; 0x06
     716:	af 81       	ldd	r26, Y+7	; 0x07
     718:	b8 85       	ldd	r27, Y+8	; 0x08
     71a:	80 8b       	std	Z+16, r24	; 0x10
     71c:	91 8b       	std	Z+17, r25	; 0x11
     71e:	a2 8b       	std	Z+18, r26	; 0x12
     720:	b3 8b       	std	Z+19, r27	; 0x13
     722:	89 85       	ldd	r24, Y+9	; 0x09
     724:	9a 85       	ldd	r25, Y+10	; 0x0a
     726:	ab 85       	ldd	r26, Y+11	; 0x0b
     728:	bc 85       	ldd	r27, Y+12	; 0x0c
     72a:	84 8b       	std	Z+20, r24	; 0x14
     72c:	95 8b       	std	Z+21, r25	; 0x15
     72e:	a6 8b       	std	Z+22, r26	; 0x16
     730:	b7 8b       	std	Z+23, r27	; 0x17
     732:	8d 85       	ldd	r24, Y+13	; 0x0d
     734:	9e 85       	ldd	r25, Y+14	; 0x0e
     736:	af 85       	ldd	r26, Y+15	; 0x0f
     738:	b8 89       	ldd	r27, Y+16	; 0x10
     73a:	80 8f       	std	Z+24, r24	; 0x18
     73c:	91 8f       	std	Z+25, r25	; 0x19
     73e:	a2 8f       	std	Z+26, r26	; 0x1a
     740:	b3 8f       	std	Z+27, r27	; 0x1b
     742:	c4 8e       	std	Z+28, r12	; 0x1c
     744:	d5 8e       	std	Z+29, r13	; 0x1d
     746:	e6 8e       	std	Z+30, r14	; 0x1e
     748:	f7 8e       	std	Z+31, r15	; 0x1f
     74a:	c8 01       	movw	r24, r16
     74c:	60 96       	adiw	r28, 0x10	; 16
     74e:	0f b6       	in	r0, 0x3f	; 63
     750:	f8 94       	cli
     752:	de bf       	out	0x3e, r29	; 62
     754:	0f be       	out	0x3f, r0	; 63
     756:	cd bf       	out	0x3d, r28	; 61
     758:	df 91       	pop	r29
     75a:	cf 91       	pop	r28
     75c:	1f 91       	pop	r17
     75e:	0f 91       	pop	r16
     760:	ff 90       	pop	r15
     762:	ef 90       	pop	r14
     764:	df 90       	pop	r13
     766:	cf 90       	pop	r12
     768:	bf 90       	pop	r11
     76a:	af 90       	pop	r10
     76c:	9f 90       	pop	r9
     76e:	8f 90       	pop	r8
     770:	7f 90       	pop	r7
     772:	6f 90       	pop	r6
     774:	5f 90       	pop	r5
     776:	4f 90       	pop	r4
     778:	08 95       	ret

0000077a <v_Sub2>:
     77a:	2f 92       	push	r2
     77c:	3f 92       	push	r3
     77e:	4f 92       	push	r4
     780:	5f 92       	push	r5
     782:	6f 92       	push	r6
     784:	7f 92       	push	r7
     786:	8f 92       	push	r8
     788:	9f 92       	push	r9
     78a:	af 92       	push	r10
     78c:	bf 92       	push	r11
     78e:	cf 92       	push	r12
     790:	df 92       	push	r13
     792:	ef 92       	push	r14
     794:	ff 92       	push	r15
     796:	0f 93       	push	r16
     798:	1f 93       	push	r17
     79a:	cf 93       	push	r28
     79c:	df 93       	push	r29
     79e:	cd b7       	in	r28, 0x3d	; 61
     7a0:	de b7       	in	r29, 0x3e	; 62
     7a2:	60 97       	sbiw	r28, 0x10	; 16
     7a4:	0f b6       	in	r0, 0x3f	; 63
     7a6:	f8 94       	cli
     7a8:	de bf       	out	0x3e, r29	; 62
     7aa:	0f be       	out	0x3f, r0	; 63
     7ac:	cd bf       	out	0x3d, r28	; 61
     7ae:	3c 01       	movw	r6, r24
     7b0:	89 82       	std	Y+1, r8	; 0x01
     7b2:	9a 82       	std	Y+2, r9	; 0x02
     7b4:	ab 82       	std	Y+3, r10	; 0x03
     7b6:	bc 82       	std	Y+4, r11	; 0x04
     7b8:	cd 82       	std	Y+5, r12	; 0x05
     7ba:	de 82       	std	Y+6, r13	; 0x06
     7bc:	ef 82       	std	Y+7, r14	; 0x07
     7be:	f8 86       	std	Y+8, r15	; 0x08
     7c0:	09 87       	std	Y+9, r16	; 0x09
     7c2:	1a 87       	std	Y+10, r17	; 0x0a
     7c4:	2b 87       	std	Y+11, r18	; 0x0b
     7c6:	3c 87       	std	Y+12, r19	; 0x0c
     7c8:	4d 87       	std	Y+13, r20	; 0x0d
     7ca:	5e 87       	std	Y+14, r21	; 0x0e
     7cc:	6f 87       	std	Y+15, r22	; 0x0f
     7ce:	78 8b       	std	Y+16, r23	; 0x10
     7d0:	29 a5       	ldd	r18, Y+41	; 0x29
     7d2:	3a a5       	ldd	r19, Y+42	; 0x2a
     7d4:	4b a5       	ldd	r20, Y+43	; 0x2b
     7d6:	5c a5       	ldd	r21, Y+44	; 0x2c
     7d8:	6d 81       	ldd	r22, Y+5	; 0x05
     7da:	7e 81       	ldd	r23, Y+6	; 0x06
     7dc:	8f 81       	ldd	r24, Y+7	; 0x07
     7de:	98 85       	ldd	r25, Y+8	; 0x08
     7e0:	0e 94 7f 0d 	call	0x1afe	; 0x1afe <__subsf3>
     7e4:	1b 01       	movw	r2, r22
     7e6:	2c 01       	movw	r4, r24
     7e8:	2d a5       	ldd	r18, Y+45	; 0x2d
     7ea:	3e a5       	ldd	r19, Y+46	; 0x2e
     7ec:	4f a5       	ldd	r20, Y+47	; 0x2f
     7ee:	58 a9       	ldd	r21, Y+48	; 0x30
     7f0:	69 85       	ldd	r22, Y+9	; 0x09
     7f2:	7a 85       	ldd	r23, Y+10	; 0x0a
     7f4:	8b 85       	ldd	r24, Y+11	; 0x0b
     7f6:	9c 85       	ldd	r25, Y+12	; 0x0c
     7f8:	0e 94 7f 0d 	call	0x1afe	; 0x1afe <__subsf3>
     7fc:	4b 01       	movw	r8, r22
     7fe:	5c 01       	movw	r10, r24
     800:	29 a9       	ldd	r18, Y+49	; 0x31
     802:	3a a9       	ldd	r19, Y+50	; 0x32
     804:	4b a9       	ldd	r20, Y+51	; 0x33
     806:	5c a9       	ldd	r21, Y+52	; 0x34
     808:	6d 85       	ldd	r22, Y+13	; 0x0d
     80a:	7e 85       	ldd	r23, Y+14	; 0x0e
     80c:	8f 85       	ldd	r24, Y+15	; 0x0f
     80e:	98 89       	ldd	r25, Y+16	; 0x10
     810:	0e 94 7f 0d 	call	0x1afe	; 0x1afe <__subsf3>
     814:	6b 01       	movw	r12, r22
     816:	7c 01       	movw	r14, r24
     818:	2d a1       	ldd	r18, Y+37	; 0x25
     81a:	3e a1       	ldd	r19, Y+38	; 0x26
     81c:	4f a1       	ldd	r20, Y+39	; 0x27
     81e:	58 a5       	ldd	r21, Y+40	; 0x28
     820:	69 81       	ldd	r22, Y+1	; 0x01
     822:	7a 81       	ldd	r23, Y+2	; 0x02
     824:	8b 81       	ldd	r24, Y+3	; 0x03
     826:	9c 81       	ldd	r25, Y+4	; 0x04
     828:	0e 94 7f 0d 	call	0x1afe	; 0x1afe <__subsf3>
     82c:	f3 01       	movw	r30, r6
     82e:	60 83       	st	Z, r22
     830:	71 83       	std	Z+1, r23	; 0x01
     832:	82 83       	std	Z+2, r24	; 0x02
     834:	93 83       	std	Z+3, r25	; 0x03
     836:	24 82       	std	Z+4, r2	; 0x04
     838:	35 82       	std	Z+5, r3	; 0x05
     83a:	46 82       	std	Z+6, r4	; 0x06
     83c:	57 82       	std	Z+7, r5	; 0x07
     83e:	80 86       	std	Z+8, r8	; 0x08
     840:	91 86       	std	Z+9, r9	; 0x09
     842:	a2 86       	std	Z+10, r10	; 0x0a
     844:	b3 86       	std	Z+11, r11	; 0x0b
     846:	c4 86       	std	Z+12, r12	; 0x0c
     848:	d5 86       	std	Z+13, r13	; 0x0d
     84a:	e6 86       	std	Z+14, r14	; 0x0e
     84c:	f7 86       	std	Z+15, r15	; 0x0f
     84e:	c3 01       	movw	r24, r6
     850:	60 96       	adiw	r28, 0x10	; 16
     852:	0f b6       	in	r0, 0x3f	; 63
     854:	f8 94       	cli
     856:	de bf       	out	0x3e, r29	; 62
     858:	0f be       	out	0x3f, r0	; 63
     85a:	cd bf       	out	0x3d, r28	; 61
     85c:	df 91       	pop	r29
     85e:	cf 91       	pop	r28
     860:	1f 91       	pop	r17
     862:	0f 91       	pop	r16
     864:	ff 90       	pop	r15
     866:	ef 90       	pop	r14
     868:	df 90       	pop	r13
     86a:	cf 90       	pop	r12
     86c:	bf 90       	pop	r11
     86e:	af 90       	pop	r10
     870:	9f 90       	pop	r9
     872:	8f 90       	pop	r8
     874:	7f 90       	pop	r7
     876:	6f 90       	pop	r6
     878:	5f 90       	pop	r5
     87a:	4f 90       	pop	r4
     87c:	3f 90       	pop	r3
     87e:	2f 90       	pop	r2
     880:	08 95       	ret

00000882 <combine_two>:
     882:	6f 92       	push	r6
     884:	7f 92       	push	r7
     886:	8f 92       	push	r8
     888:	9f 92       	push	r9
     88a:	af 92       	push	r10
     88c:	bf 92       	push	r11
     88e:	cf 92       	push	r12
     890:	df 92       	push	r13
     892:	ef 92       	push	r14
     894:	ff 92       	push	r15
     896:	0f 93       	push	r16
     898:	1f 93       	push	r17
     89a:	cf 93       	push	r28
     89c:	df 93       	push	r29
     89e:	cd b7       	in	r28, 0x3d	; 61
     8a0:	de b7       	in	r29, 0x3e	; 62
     8a2:	e0 97       	sbiw	r28, 0x30	; 48
     8a4:	0f b6       	in	r0, 0x3f	; 63
     8a6:	f8 94       	cli
     8a8:	de bf       	out	0x3e, r29	; 62
     8aa:	0f be       	out	0x3f, r0	; 63
     8ac:	cd bf       	out	0x3d, r28	; 61
     8ae:	3c 01       	movw	r6, r24
     8b0:	89 a2       	std	Y+33, r8	; 0x21
     8b2:	9a a2       	std	Y+34, r9	; 0x22
     8b4:	ab a2       	std	Y+35, r10	; 0x23
     8b6:	bc a2       	std	Y+36, r11	; 0x24
     8b8:	cd a2       	std	Y+37, r12	; 0x25
     8ba:	de a2       	std	Y+38, r13	; 0x26
     8bc:	ef a2       	std	Y+39, r14	; 0x27
     8be:	f8 a6       	std	Y+40, r15	; 0x28
     8c0:	09 a7       	std	Y+41, r16	; 0x29
     8c2:	1a a7       	std	Y+42, r17	; 0x2a
     8c4:	2b a7       	std	Y+43, r18	; 0x2b
     8c6:	3c a7       	std	Y+44, r19	; 0x2c
     8c8:	4d a7       	std	Y+45, r20	; 0x2d
     8ca:	5e a7       	std	Y+46, r21	; 0x2e
     8cc:	6f a7       	std	Y+47, r22	; 0x2f
     8ce:	78 ab       	std	Y+48, r23	; 0x30
     8d0:	8d b7       	in	r24, 0x3d	; 61
     8d2:	9e b7       	in	r25, 0x3e	; 62
     8d4:	40 97       	sbiw	r24, 0x10	; 16
     8d6:	0f b6       	in	r0, 0x3f	; 63
     8d8:	f8 94       	cli
     8da:	9e bf       	out	0x3e, r25	; 62
     8dc:	0f be       	out	0x3f, r0	; 63
     8de:	8d bf       	out	0x3d, r24	; 61
     8e0:	ad b7       	in	r26, 0x3d	; 61
     8e2:	be b7       	in	r27, 0x3e	; 62
     8e4:	11 96       	adiw	r26, 0x01	; 1
     8e6:	80 e1       	ldi	r24, 0x10	; 16
     8e8:	fe 01       	movw	r30, r28
     8ea:	b1 96       	adiw	r30, 0x21	; 33
     8ec:	01 90       	ld	r0, Z+
     8ee:	0d 92       	st	X+, r0
     8f0:	8a 95       	dec	r24
     8f2:	e1 f7       	brne	.-8      	; 0x8ec <combine_two+0x6a>
     8f4:	22 96       	adiw	r28, 0x02	; 2
     8f6:	8f ac       	ldd	r8, Y+63	; 0x3f
     8f8:	22 97       	sbiw	r28, 0x02	; 2
     8fa:	23 96       	adiw	r28, 0x03	; 3
     8fc:	9f ac       	ldd	r9, Y+63	; 0x3f
     8fe:	23 97       	sbiw	r28, 0x03	; 3
     900:	24 96       	adiw	r28, 0x04	; 4
     902:	af ac       	ldd	r10, Y+63	; 0x3f
     904:	24 97       	sbiw	r28, 0x04	; 4
     906:	25 96       	adiw	r28, 0x05	; 5
     908:	bf ac       	ldd	r11, Y+63	; 0x3f
     90a:	25 97       	sbiw	r28, 0x05	; 5
     90c:	26 96       	adiw	r28, 0x06	; 6
     90e:	cf ac       	ldd	r12, Y+63	; 0x3f
     910:	26 97       	sbiw	r28, 0x06	; 6
     912:	27 96       	adiw	r28, 0x07	; 7
     914:	df ac       	ldd	r13, Y+63	; 0x3f
     916:	27 97       	sbiw	r28, 0x07	; 7
     918:	28 96       	adiw	r28, 0x08	; 8
     91a:	ef ac       	ldd	r14, Y+63	; 0x3f
     91c:	28 97       	sbiw	r28, 0x08	; 8
     91e:	29 96       	adiw	r28, 0x09	; 9
     920:	ff ac       	ldd	r15, Y+63	; 0x3f
     922:	29 97       	sbiw	r28, 0x09	; 9
     924:	2a 96       	adiw	r28, 0x0a	; 10
     926:	0f ad       	ldd	r16, Y+63	; 0x3f
     928:	2a 97       	sbiw	r28, 0x0a	; 10
     92a:	2b 96       	adiw	r28, 0x0b	; 11
     92c:	1f ad       	ldd	r17, Y+63	; 0x3f
     92e:	2b 97       	sbiw	r28, 0x0b	; 11
     930:	2c 96       	adiw	r28, 0x0c	; 12
     932:	2f ad       	ldd	r18, Y+63	; 0x3f
     934:	2c 97       	sbiw	r28, 0x0c	; 12
     936:	2d 96       	adiw	r28, 0x0d	; 13
     938:	3f ad       	ldd	r19, Y+63	; 0x3f
     93a:	2d 97       	sbiw	r28, 0x0d	; 13
     93c:	2e 96       	adiw	r28, 0x0e	; 14
     93e:	4f ad       	ldd	r20, Y+63	; 0x3f
     940:	2e 97       	sbiw	r28, 0x0e	; 14
     942:	2f 96       	adiw	r28, 0x0f	; 15
     944:	5f ad       	ldd	r21, Y+63	; 0x3f
     946:	2f 97       	sbiw	r28, 0x0f	; 15
     948:	60 96       	adiw	r28, 0x10	; 16
     94a:	6f ad       	ldd	r22, Y+63	; 0x3f
     94c:	60 97       	sbiw	r28, 0x10	; 16
     94e:	61 96       	adiw	r28, 0x11	; 17
     950:	7f ad       	ldd	r23, Y+63	; 0x3f
     952:	61 97       	sbiw	r28, 0x11	; 17
     954:	ce 01       	movw	r24, r28
     956:	01 96       	adiw	r24, 0x01	; 1
     958:	0e 94 5b 02 	call	0x4b6	; 0x4b6 <v_Add2>
     95c:	8d b7       	in	r24, 0x3d	; 61
     95e:	9e b7       	in	r25, 0x3e	; 62
     960:	40 97       	sbiw	r24, 0x10	; 16
     962:	0f b6       	in	r0, 0x3f	; 63
     964:	f8 94       	cli
     966:	9e bf       	out	0x3e, r25	; 62
     968:	0f be       	out	0x3f, r0	; 63
     96a:	8d bf       	out	0x3d, r24	; 61
     96c:	ad b7       	in	r26, 0x3d	; 61
     96e:	be b7       	in	r27, 0x3e	; 62
     970:	11 96       	adiw	r26, 0x01	; 1
     972:	80 e1       	ldi	r24, 0x10	; 16
     974:	fe 01       	movw	r30, r28
     976:	ef 5b       	subi	r30, 0xBF	; 191
     978:	ff 4f       	sbci	r31, 0xFF	; 255
     97a:	01 90       	ld	r0, Z+
     97c:	0d 92       	st	X+, r0
     97e:	8a 95       	dec	r24
     980:	e1 f7       	brne	.-8      	; 0x97a <__stack+0x7b>
     982:	89 a0       	ldd	r8, Y+33	; 0x21
     984:	9a a0       	ldd	r9, Y+34	; 0x22
     986:	ab a0       	ldd	r10, Y+35	; 0x23
     988:	bc a0       	ldd	r11, Y+36	; 0x24
     98a:	cd a0       	ldd	r12, Y+37	; 0x25
     98c:	de a0       	ldd	r13, Y+38	; 0x26
     98e:	ef a0       	ldd	r14, Y+39	; 0x27
     990:	f8 a4       	ldd	r15, Y+40	; 0x28
     992:	09 a5       	ldd	r16, Y+41	; 0x29
     994:	1a a5       	ldd	r17, Y+42	; 0x2a
     996:	2b a5       	ldd	r18, Y+43	; 0x2b
     998:	3c a5       	ldd	r19, Y+44	; 0x2c
     99a:	4d a5       	ldd	r20, Y+45	; 0x2d
     99c:	5e a5       	ldd	r21, Y+46	; 0x2e
     99e:	6f a5       	ldd	r22, Y+47	; 0x2f
     9a0:	78 a9       	ldd	r23, Y+48	; 0x30
     9a2:	ce 01       	movw	r24, r28
     9a4:	41 96       	adiw	r24, 0x11	; 17
     9a6:	0e 94 bd 03 	call	0x77a	; 0x77a <v_Sub2>
     9aa:	88 e0       	ldi	r24, 0x08	; 8
     9ac:	fe 01       	movw	r30, r28
     9ae:	31 96       	adiw	r30, 0x01	; 1
     9b0:	d3 01       	movw	r26, r6
     9b2:	01 90       	ld	r0, Z+
     9b4:	0d 92       	st	X+, r0
     9b6:	8a 95       	dec	r24
     9b8:	e1 f7       	brne	.-8      	; 0x9b2 <__stack+0xb3>
     9ba:	88 e0       	ldi	r24, 0x08	; 8
     9bc:	fe 01       	movw	r30, r28
     9be:	39 96       	adiw	r30, 0x09	; 9
     9c0:	d3 01       	movw	r26, r6
     9c2:	18 96       	adiw	r26, 0x08	; 8
     9c4:	01 90       	ld	r0, Z+
     9c6:	0d 92       	st	X+, r0
     9c8:	8a 95       	dec	r24
     9ca:	e1 f7       	brne	.-8      	; 0x9c4 <__stack+0xc5>
     9cc:	88 e0       	ldi	r24, 0x08	; 8
     9ce:	fe 01       	movw	r30, r28
     9d0:	71 96       	adiw	r30, 0x11	; 17
     9d2:	d3 01       	movw	r26, r6
     9d4:	50 96       	adiw	r26, 0x10	; 16
     9d6:	01 90       	ld	r0, Z+
     9d8:	0d 92       	st	X+, r0
     9da:	8a 95       	dec	r24
     9dc:	e1 f7       	brne	.-8      	; 0x9d6 <__stack+0xd7>
     9de:	88 e0       	ldi	r24, 0x08	; 8
     9e0:	fe 01       	movw	r30, r28
     9e2:	79 96       	adiw	r30, 0x19	; 25
     9e4:	d3 01       	movw	r26, r6
     9e6:	58 96       	adiw	r26, 0x18	; 24
     9e8:	01 90       	ld	r0, Z+
     9ea:	0d 92       	st	X+, r0
     9ec:	8a 95       	dec	r24
     9ee:	e1 f7       	brne	.-8      	; 0x9e8 <__stack+0xe9>
     9f0:	0f b6       	in	r0, 0x3f	; 63
     9f2:	f8 94       	cli
     9f4:	de bf       	out	0x3e, r29	; 62
     9f6:	0f be       	out	0x3f, r0	; 63
     9f8:	cd bf       	out	0x3d, r28	; 61
     9fa:	c3 01       	movw	r24, r6
     9fc:	e0 96       	adiw	r28, 0x30	; 48
     9fe:	0f b6       	in	r0, 0x3f	; 63
     a00:	f8 94       	cli
     a02:	de bf       	out	0x3e, r29	; 62
     a04:	0f be       	out	0x3f, r0	; 63
     a06:	cd bf       	out	0x3d, r28	; 61
     a08:	df 91       	pop	r29
     a0a:	cf 91       	pop	r28
     a0c:	1f 91       	pop	r17
     a0e:	0f 91       	pop	r16
     a10:	ff 90       	pop	r15
     a12:	ef 90       	pop	r14
     a14:	df 90       	pop	r13
     a16:	cf 90       	pop	r12
     a18:	bf 90       	pop	r11
     a1a:	af 90       	pop	r10
     a1c:	9f 90       	pop	r9
     a1e:	8f 90       	pop	r8
     a20:	7f 90       	pop	r7
     a22:	6f 90       	pop	r6
     a24:	08 95       	ret

00000a26 <v_Sub4>:
     a26:	4f 92       	push	r4
     a28:	5f 92       	push	r5
     a2a:	6f 92       	push	r6
     a2c:	7f 92       	push	r7
     a2e:	8f 92       	push	r8
     a30:	9f 92       	push	r9
     a32:	af 92       	push	r10
     a34:	bf 92       	push	r11
     a36:	cf 92       	push	r12
     a38:	df 92       	push	r13
     a3a:	ef 92       	push	r14
     a3c:	ff 92       	push	r15
     a3e:	0f 93       	push	r16
     a40:	1f 93       	push	r17
     a42:	cf 93       	push	r28
     a44:	df 93       	push	r29
     a46:	cd b7       	in	r28, 0x3d	; 61
     a48:	de b7       	in	r29, 0x3e	; 62
     a4a:	60 97       	sbiw	r28, 0x10	; 16
     a4c:	0f b6       	in	r0, 0x3f	; 63
     a4e:	f8 94       	cli
     a50:	de bf       	out	0x3e, r29	; 62
     a52:	0f be       	out	0x3f, r0	; 63
     a54:	cd bf       	out	0x3d, r28	; 61
     a56:	8c 01       	movw	r16, r24
     a58:	2b 96       	adiw	r28, 0x0b	; 11
     a5a:	2c ad       	ldd	r18, Y+60	; 0x3c
     a5c:	3d ad       	ldd	r19, Y+61	; 0x3d
     a5e:	4e ad       	ldd	r20, Y+62	; 0x3e
     a60:	5f ad       	ldd	r21, Y+63	; 0x3f
     a62:	2b 97       	sbiw	r28, 0x0b	; 11
     a64:	6f a1       	ldd	r22, Y+39	; 0x27
     a66:	78 a5       	ldd	r23, Y+40	; 0x28
     a68:	89 a5       	ldd	r24, Y+41	; 0x29
     a6a:	9a a5       	ldd	r25, Y+42	; 0x2a
     a6c:	0e 94 7f 0d 	call	0x1afe	; 0x1afe <__subsf3>
     a70:	2b 01       	movw	r4, r22
     a72:	3c 01       	movw	r6, r24
     a74:	2f 96       	adiw	r28, 0x0f	; 15
     a76:	2c ad       	ldd	r18, Y+60	; 0x3c
     a78:	3d ad       	ldd	r19, Y+61	; 0x3d
     a7a:	4e ad       	ldd	r20, Y+62	; 0x3e
     a7c:	5f ad       	ldd	r21, Y+63	; 0x3f
     a7e:	2f 97       	sbiw	r28, 0x0f	; 15
     a80:	6b a5       	ldd	r22, Y+43	; 0x2b
     a82:	7c a5       	ldd	r23, Y+44	; 0x2c
     a84:	8d a5       	ldd	r24, Y+45	; 0x2d
     a86:	9e a5       	ldd	r25, Y+46	; 0x2e
     a88:	0e 94 7f 0d 	call	0x1afe	; 0x1afe <__subsf3>
     a8c:	4b 01       	movw	r8, r22
     a8e:	5c 01       	movw	r10, r24
     a90:	63 96       	adiw	r28, 0x13	; 19
     a92:	2c ad       	ldd	r18, Y+60	; 0x3c
     a94:	3d ad       	ldd	r19, Y+61	; 0x3d
     a96:	4e ad       	ldd	r20, Y+62	; 0x3e
     a98:	5f ad       	ldd	r21, Y+63	; 0x3f
     a9a:	63 97       	sbiw	r28, 0x13	; 19
     a9c:	6f a5       	ldd	r22, Y+47	; 0x2f
     a9e:	78 a9       	ldd	r23, Y+48	; 0x30
     aa0:	89 a9       	ldd	r24, Y+49	; 0x31
     aa2:	9a a9       	ldd	r25, Y+50	; 0x32
     aa4:	0e 94 7f 0d 	call	0x1afe	; 0x1afe <__subsf3>
     aa8:	69 83       	std	Y+1, r22	; 0x01
     aaa:	7a 83       	std	Y+2, r23	; 0x02
     aac:	8b 83       	std	Y+3, r24	; 0x03
     aae:	9c 83       	std	Y+4, r25	; 0x04
     ab0:	67 96       	adiw	r28, 0x17	; 23
     ab2:	2c ad       	ldd	r18, Y+60	; 0x3c
     ab4:	3d ad       	ldd	r19, Y+61	; 0x3d
     ab6:	4e ad       	ldd	r20, Y+62	; 0x3e
     ab8:	5f ad       	ldd	r21, Y+63	; 0x3f
     aba:	67 97       	sbiw	r28, 0x17	; 23
     abc:	6b a9       	ldd	r22, Y+51	; 0x33
     abe:	7c a9       	ldd	r23, Y+52	; 0x34
     ac0:	8d a9       	ldd	r24, Y+53	; 0x35
     ac2:	9e a9       	ldd	r25, Y+54	; 0x36
     ac4:	0e 94 7f 0d 	call	0x1afe	; 0x1afe <__subsf3>
     ac8:	6d 83       	std	Y+5, r22	; 0x05
     aca:	7e 83       	std	Y+6, r23	; 0x06
     acc:	8f 83       	std	Y+7, r24	; 0x07
     ace:	98 87       	std	Y+8, r25	; 0x08
     ad0:	6b 96       	adiw	r28, 0x1b	; 27
     ad2:	2c ad       	ldd	r18, Y+60	; 0x3c
     ad4:	3d ad       	ldd	r19, Y+61	; 0x3d
     ad6:	4e ad       	ldd	r20, Y+62	; 0x3e
     ad8:	5f ad       	ldd	r21, Y+63	; 0x3f
     ada:	6b 97       	sbiw	r28, 0x1b	; 27
     adc:	6f a9       	ldd	r22, Y+55	; 0x37
     ade:	78 ad       	ldd	r23, Y+56	; 0x38
     ae0:	89 ad       	ldd	r24, Y+57	; 0x39
     ae2:	9a ad       	ldd	r25, Y+58	; 0x3a
     ae4:	0e 94 7f 0d 	call	0x1afe	; 0x1afe <__subsf3>
     ae8:	69 87       	std	Y+9, r22	; 0x09
     aea:	7a 87       	std	Y+10, r23	; 0x0a
     aec:	8b 87       	std	Y+11, r24	; 0x0b
     aee:	9c 87       	std	Y+12, r25	; 0x0c
     af0:	6f 96       	adiw	r28, 0x1f	; 31
     af2:	2c ad       	ldd	r18, Y+60	; 0x3c
     af4:	3d ad       	ldd	r19, Y+61	; 0x3d
     af6:	4e ad       	ldd	r20, Y+62	; 0x3e
     af8:	5f ad       	ldd	r21, Y+63	; 0x3f
     afa:	6f 97       	sbiw	r28, 0x1f	; 31
     afc:	6b ad       	ldd	r22, Y+59	; 0x3b
     afe:	7c ad       	ldd	r23, Y+60	; 0x3c
     b00:	8d ad       	ldd	r24, Y+61	; 0x3d
     b02:	9e ad       	ldd	r25, Y+62	; 0x3e
     b04:	0e 94 7f 0d 	call	0x1afe	; 0x1afe <__subsf3>
     b08:	6d 87       	std	Y+13, r22	; 0x0d
     b0a:	7e 87       	std	Y+14, r23	; 0x0e
     b0c:	8f 87       	std	Y+15, r24	; 0x0f
     b0e:	98 8b       	std	Y+16, r25	; 0x10
     b10:	a3 96       	adiw	r28, 0x23	; 35
     b12:	2c ad       	ldd	r18, Y+60	; 0x3c
     b14:	3d ad       	ldd	r19, Y+61	; 0x3d
     b16:	4e ad       	ldd	r20, Y+62	; 0x3e
     b18:	5f ad       	ldd	r21, Y+63	; 0x3f
     b1a:	a3 97       	sbiw	r28, 0x23	; 35
     b1c:	23 96       	adiw	r28, 0x03	; 3
     b1e:	6c ad       	ldd	r22, Y+60	; 0x3c
     b20:	7d ad       	ldd	r23, Y+61	; 0x3d
     b22:	8e ad       	ldd	r24, Y+62	; 0x3e
     b24:	9f ad       	ldd	r25, Y+63	; 0x3f
     b26:	23 97       	sbiw	r28, 0x03	; 3
     b28:	0e 94 7f 0d 	call	0x1afe	; 0x1afe <__subsf3>
     b2c:	6b 01       	movw	r12, r22
     b2e:	7c 01       	movw	r14, r24
     b30:	27 96       	adiw	r28, 0x07	; 7
     b32:	2c ad       	ldd	r18, Y+60	; 0x3c
     b34:	3d ad       	ldd	r19, Y+61	; 0x3d
     b36:	4e ad       	ldd	r20, Y+62	; 0x3e
     b38:	5f ad       	ldd	r21, Y+63	; 0x3f
     b3a:	27 97       	sbiw	r28, 0x07	; 7
     b3c:	6b a1       	ldd	r22, Y+35	; 0x23
     b3e:	7c a1       	ldd	r23, Y+36	; 0x24
     b40:	8d a1       	ldd	r24, Y+37	; 0x25
     b42:	9e a1       	ldd	r25, Y+38	; 0x26
     b44:	0e 94 7f 0d 	call	0x1afe	; 0x1afe <__subsf3>
     b48:	d8 01       	movw	r26, r16
     b4a:	6d 93       	st	X+, r22
     b4c:	7d 93       	st	X+, r23
     b4e:	8d 93       	st	X+, r24
     b50:	9c 93       	st	X, r25
     b52:	13 97       	sbiw	r26, 0x03	; 3
     b54:	f8 01       	movw	r30, r16
     b56:	44 82       	std	Z+4, r4	; 0x04
     b58:	55 82       	std	Z+5, r5	; 0x05
     b5a:	66 82       	std	Z+6, r6	; 0x06
     b5c:	77 82       	std	Z+7, r7	; 0x07
     b5e:	18 96       	adiw	r26, 0x08	; 8
     b60:	8d 92       	st	X+, r8
     b62:	9d 92       	st	X+, r9
     b64:	ad 92       	st	X+, r10
     b66:	bc 92       	st	X, r11
     b68:	1b 97       	sbiw	r26, 0x0b	; 11
     b6a:	89 81       	ldd	r24, Y+1	; 0x01
     b6c:	9a 81       	ldd	r25, Y+2	; 0x02
     b6e:	ab 81       	ldd	r26, Y+3	; 0x03
     b70:	bc 81       	ldd	r27, Y+4	; 0x04
     b72:	84 87       	std	Z+12, r24	; 0x0c
     b74:	95 87       	std	Z+13, r25	; 0x0d
     b76:	a6 87       	std	Z+14, r26	; 0x0e
     b78:	b7 87       	std	Z+15, r27	; 0x0f
     b7a:	8d 81       	ldd	r24, Y+5	; 0x05
     b7c:	9e 81       	ldd	r25, Y+6	; 0x06
     b7e:	af 81       	ldd	r26, Y+7	; 0x07
     b80:	b8 85       	ldd	r27, Y+8	; 0x08
     b82:	80 8b       	std	Z+16, r24	; 0x10
     b84:	91 8b       	std	Z+17, r25	; 0x11
     b86:	a2 8b       	std	Z+18, r26	; 0x12
     b88:	b3 8b       	std	Z+19, r27	; 0x13
     b8a:	89 85       	ldd	r24, Y+9	; 0x09
     b8c:	9a 85       	ldd	r25, Y+10	; 0x0a
     b8e:	ab 85       	ldd	r26, Y+11	; 0x0b
     b90:	bc 85       	ldd	r27, Y+12	; 0x0c
     b92:	84 8b       	std	Z+20, r24	; 0x14
     b94:	95 8b       	std	Z+21, r25	; 0x15
     b96:	a6 8b       	std	Z+22, r26	; 0x16
     b98:	b7 8b       	std	Z+23, r27	; 0x17
     b9a:	8d 85       	ldd	r24, Y+13	; 0x0d
     b9c:	9e 85       	ldd	r25, Y+14	; 0x0e
     b9e:	af 85       	ldd	r26, Y+15	; 0x0f
     ba0:	b8 89       	ldd	r27, Y+16	; 0x10
     ba2:	80 8f       	std	Z+24, r24	; 0x18
     ba4:	91 8f       	std	Z+25, r25	; 0x19
     ba6:	a2 8f       	std	Z+26, r26	; 0x1a
     ba8:	b3 8f       	std	Z+27, r27	; 0x1b
     baa:	c4 8e       	std	Z+28, r12	; 0x1c
     bac:	d5 8e       	std	Z+29, r13	; 0x1d
     bae:	e6 8e       	std	Z+30, r14	; 0x1e
     bb0:	f7 8e       	std	Z+31, r15	; 0x1f
     bb2:	c8 01       	movw	r24, r16
     bb4:	60 96       	adiw	r28, 0x10	; 16
     bb6:	0f b6       	in	r0, 0x3f	; 63
     bb8:	f8 94       	cli
     bba:	de bf       	out	0x3e, r29	; 62
     bbc:	0f be       	out	0x3f, r0	; 63
     bbe:	cd bf       	out	0x3d, r28	; 61
     bc0:	df 91       	pop	r29
     bc2:	cf 91       	pop	r28
     bc4:	1f 91       	pop	r17
     bc6:	0f 91       	pop	r16
     bc8:	ff 90       	pop	r15
     bca:	ef 90       	pop	r14
     bcc:	df 90       	pop	r13
     bce:	cf 90       	pop	r12
     bd0:	bf 90       	pop	r11
     bd2:	af 90       	pop	r10
     bd4:	9f 90       	pop	r9
     bd6:	8f 90       	pop	r8
     bd8:	7f 90       	pop	r7
     bda:	6f 90       	pop	r6
     bdc:	5f 90       	pop	r5
     bde:	4f 90       	pop	r4
     be0:	08 95       	ret

00000be2 <combine_final>:
     be2:	0f 93       	push	r16
     be4:	1f 93       	push	r17
     be6:	cf 93       	push	r28
     be8:	df 93       	push	r29
     bea:	cd b7       	in	r28, 0x3d	; 61
     bec:	de b7       	in	r29, 0x3e	; 62
     bee:	c0 54       	subi	r28, 0x40	; 64
     bf0:	d1 09       	sbc	r29, r1
     bf2:	0f b6       	in	r0, 0x3f	; 63
     bf4:	f8 94       	cli
     bf6:	de bf       	out	0x3e, r29	; 62
     bf8:	0f be       	out	0x3f, r0	; 63
     bfa:	cd bf       	out	0x3d, r28	; 61
     bfc:	8c 01       	movw	r16, r24
     bfe:	8d b7       	in	r24, 0x3d	; 61
     c00:	9e b7       	in	r25, 0x3e	; 62
     c02:	80 97       	sbiw	r24, 0x20	; 32
     c04:	0f b6       	in	r0, 0x3f	; 63
     c06:	f8 94       	cli
     c08:	9e bf       	out	0x3e, r25	; 62
     c0a:	0f be       	out	0x3f, r0	; 63
     c0c:	8d bf       	out	0x3d, r24	; 61
     c0e:	ad b7       	in	r26, 0x3d	; 61
     c10:	be b7       	in	r27, 0x3e	; 62
     c12:	11 96       	adiw	r26, 0x01	; 1
     c14:	80 e2       	ldi	r24, 0x20	; 32
     c16:	fe 01       	movw	r30, r28
     c18:	e9 59       	subi	r30, 0x99	; 153
     c1a:	ff 4f       	sbci	r31, 0xFF	; 255
     c1c:	01 90       	ld	r0, Z+
     c1e:	0d 92       	st	X+, r0
     c20:	8a 95       	dec	r24
     c22:	e1 f7       	brne	.-8      	; 0xc1c <combine_final+0x3a>
     c24:	8d b7       	in	r24, 0x3d	; 61
     c26:	9e b7       	in	r25, 0x3e	; 62
     c28:	80 97       	sbiw	r24, 0x20	; 32
     c2a:	0f b6       	in	r0, 0x3f	; 63
     c2c:	f8 94       	cli
     c2e:	9e bf       	out	0x3e, r25	; 62
     c30:	0f be       	out	0x3f, r0	; 63
     c32:	8d bf       	out	0x3d, r24	; 61
     c34:	ad b7       	in	r26, 0x3d	; 61
     c36:	be b7       	in	r27, 0x3e	; 62
     c38:	11 96       	adiw	r26, 0x01	; 1
     c3a:	80 e2       	ldi	r24, 0x20	; 32
     c3c:	fe 01       	movw	r30, r28
     c3e:	e9 5b       	subi	r30, 0xB9	; 185
     c40:	ff 4f       	sbci	r31, 0xFF	; 255
     c42:	01 90       	ld	r0, Z+
     c44:	0d 92       	st	X+, r0
     c46:	8a 95       	dec	r24
     c48:	e1 f7       	brne	.-8      	; 0xc42 <combine_final+0x60>
     c4a:	ce 01       	movw	r24, r28
     c4c:	01 96       	adiw	r24, 0x01	; 1
     c4e:	0e 94 df 02 	call	0x5be	; 0x5be <v_Add4>
     c52:	8d b7       	in	r24, 0x3d	; 61
     c54:	9e b7       	in	r25, 0x3e	; 62
     c56:	80 5c       	subi	r24, 0xC0	; 192
     c58:	9f 4f       	sbci	r25, 0xFF	; 255
     c5a:	0f b6       	in	r0, 0x3f	; 63
     c5c:	f8 94       	cli
     c5e:	de bf       	out	0x3e, r29	; 62
     c60:	0f be       	out	0x3f, r0	; 63
     c62:	cd bf       	out	0x3d, r28	; 61
     c64:	80 97       	sbiw	r24, 0x20	; 32
     c66:	0f b6       	in	r0, 0x3f	; 63
     c68:	f8 94       	cli
     c6a:	9e bf       	out	0x3e, r25	; 62
     c6c:	0f be       	out	0x3f, r0	; 63
     c6e:	8d bf       	out	0x3d, r24	; 61
     c70:	ad b7       	in	r26, 0x3d	; 61
     c72:	be b7       	in	r27, 0x3e	; 62
     c74:	11 96       	adiw	r26, 0x01	; 1
     c76:	80 e2       	ldi	r24, 0x20	; 32
     c78:	fe 01       	movw	r30, r28
     c7a:	e9 59       	subi	r30, 0x99	; 153
     c7c:	ff 4f       	sbci	r31, 0xFF	; 255
     c7e:	01 90       	ld	r0, Z+
     c80:	0d 92       	st	X+, r0
     c82:	8a 95       	dec	r24
     c84:	e1 f7       	brne	.-8      	; 0xc7e <combine_final+0x9c>
     c86:	8d b7       	in	r24, 0x3d	; 61
     c88:	9e b7       	in	r25, 0x3e	; 62
     c8a:	80 97       	sbiw	r24, 0x20	; 32
     c8c:	0f b6       	in	r0, 0x3f	; 63
     c8e:	f8 94       	cli
     c90:	9e bf       	out	0x3e, r25	; 62
     c92:	0f be       	out	0x3f, r0	; 63
     c94:	8d bf       	out	0x3d, r24	; 61
     c96:	ad b7       	in	r26, 0x3d	; 61
     c98:	be b7       	in	r27, 0x3e	; 62
     c9a:	11 96       	adiw	r26, 0x01	; 1
     c9c:	80 e2       	ldi	r24, 0x20	; 32
     c9e:	fe 01       	movw	r30, r28
     ca0:	e9 5b       	subi	r30, 0xB9	; 185
     ca2:	ff 4f       	sbci	r31, 0xFF	; 255
     ca4:	01 90       	ld	r0, Z+
     ca6:	0d 92       	st	X+, r0
     ca8:	8a 95       	dec	r24
     caa:	e1 f7       	brne	.-8      	; 0xca4 <combine_final+0xc2>
     cac:	ce 01       	movw	r24, r28
     cae:	81 96       	adiw	r24, 0x21	; 33
     cb0:	0e 94 13 05 	call	0xa26	; 0xa26 <v_Sub4>
     cb4:	88 e0       	ldi	r24, 0x08	; 8
     cb6:	fe 01       	movw	r30, r28
     cb8:	31 96       	adiw	r30, 0x01	; 1
     cba:	d8 01       	movw	r26, r16
     cbc:	01 90       	ld	r0, Z+
     cbe:	0d 92       	st	X+, r0
     cc0:	8a 95       	dec	r24
     cc2:	e1 f7       	brne	.-8      	; 0xcbc <combine_final+0xda>
     cc4:	88 e0       	ldi	r24, 0x08	; 8
     cc6:	fe 01       	movw	r30, r28
     cc8:	39 96       	adiw	r30, 0x09	; 9
     cca:	d8 01       	movw	r26, r16
     ccc:	18 96       	adiw	r26, 0x08	; 8
     cce:	01 90       	ld	r0, Z+
     cd0:	0d 92       	st	X+, r0
     cd2:	8a 95       	dec	r24
     cd4:	e1 f7       	brne	.-8      	; 0xcce <combine_final+0xec>
     cd6:	88 e0       	ldi	r24, 0x08	; 8
     cd8:	fe 01       	movw	r30, r28
     cda:	71 96       	adiw	r30, 0x11	; 17
     cdc:	d8 01       	movw	r26, r16
     cde:	50 96       	adiw	r26, 0x10	; 16
     ce0:	01 90       	ld	r0, Z+
     ce2:	0d 92       	st	X+, r0
     ce4:	8a 95       	dec	r24
     ce6:	e1 f7       	brne	.-8      	; 0xce0 <combine_final+0xfe>
     ce8:	88 e0       	ldi	r24, 0x08	; 8
     cea:	fe 01       	movw	r30, r28
     cec:	79 96       	adiw	r30, 0x19	; 25
     cee:	d8 01       	movw	r26, r16
     cf0:	58 96       	adiw	r26, 0x18	; 24
     cf2:	01 90       	ld	r0, Z+
     cf4:	0d 92       	st	X+, r0
     cf6:	8a 95       	dec	r24
     cf8:	e1 f7       	brne	.-8      	; 0xcf2 <combine_final+0x110>
     cfa:	88 e0       	ldi	r24, 0x08	; 8
     cfc:	fe 01       	movw	r30, r28
     cfe:	b1 96       	adiw	r30, 0x21	; 33
     d00:	d8 01       	movw	r26, r16
     d02:	90 96       	adiw	r26, 0x20	; 32
     d04:	01 90       	ld	r0, Z+
     d06:	0d 92       	st	X+, r0
     d08:	8a 95       	dec	r24
     d0a:	e1 f7       	brne	.-8      	; 0xd04 <combine_final+0x122>
     d0c:	88 e0       	ldi	r24, 0x08	; 8
     d0e:	fe 01       	movw	r30, r28
     d10:	b9 96       	adiw	r30, 0x29	; 41
     d12:	d8 01       	movw	r26, r16
     d14:	98 96       	adiw	r26, 0x28	; 40
     d16:	01 90       	ld	r0, Z+
     d18:	0d 92       	st	X+, r0
     d1a:	8a 95       	dec	r24
     d1c:	e1 f7       	brne	.-8      	; 0xd16 <combine_final+0x134>
     d1e:	88 e0       	ldi	r24, 0x08	; 8
     d20:	fe 01       	movw	r30, r28
     d22:	f1 96       	adiw	r30, 0x31	; 49
     d24:	d8 01       	movw	r26, r16
     d26:	d0 96       	adiw	r26, 0x30	; 48
     d28:	01 90       	ld	r0, Z+
     d2a:	0d 92       	st	X+, r0
     d2c:	8a 95       	dec	r24
     d2e:	e1 f7       	brne	.-8      	; 0xd28 <combine_final+0x146>
     d30:	88 e0       	ldi	r24, 0x08	; 8
     d32:	fe 01       	movw	r30, r28
     d34:	f9 96       	adiw	r30, 0x39	; 57
     d36:	d8 01       	movw	r26, r16
     d38:	d8 96       	adiw	r26, 0x38	; 56
     d3a:	01 90       	ld	r0, Z+
     d3c:	0d 92       	st	X+, r0
     d3e:	8a 95       	dec	r24
     d40:	e1 f7       	brne	.-8      	; 0xd3a <combine_final+0x158>
     d42:	0f b6       	in	r0, 0x3f	; 63
     d44:	f8 94       	cli
     d46:	de bf       	out	0x3e, r29	; 62
     d48:	0f be       	out	0x3f, r0	; 63
     d4a:	cd bf       	out	0x3d, r28	; 61
     d4c:	c8 01       	movw	r24, r16
     d4e:	c0 5c       	subi	r28, 0xC0	; 192
     d50:	df 4f       	sbci	r29, 0xFF	; 255
     d52:	0f b6       	in	r0, 0x3f	; 63
     d54:	f8 94       	cli
     d56:	de bf       	out	0x3e, r29	; 62
     d58:	0f be       	out	0x3f, r0	; 63
     d5a:	cd bf       	out	0x3d, r28	; 61
     d5c:	df 91       	pop	r29
     d5e:	cf 91       	pop	r28
     d60:	1f 91       	pop	r17
     d62:	0f 91       	pop	r16
     d64:	08 95       	ret

00000d66 <c_Mult>:
     d66:	4f 92       	push	r4
     d68:	5f 92       	push	r5
     d6a:	6f 92       	push	r6
     d6c:	7f 92       	push	r7
     d6e:	8f 92       	push	r8
     d70:	9f 92       	push	r9
     d72:	af 92       	push	r10
     d74:	bf 92       	push	r11
     d76:	cf 92       	push	r12
     d78:	df 92       	push	r13
     d7a:	ef 92       	push	r14
     d7c:	ff 92       	push	r15
     d7e:	0f 93       	push	r16
     d80:	1f 93       	push	r17
     d82:	cf 93       	push	r28
     d84:	df 93       	push	r29
     d86:	cd b7       	in	r28, 0x3d	; 61
     d88:	de b7       	in	r29, 0x3e	; 62
     d8a:	a0 97       	sbiw	r28, 0x20	; 32
     d8c:	0f b6       	in	r0, 0x3f	; 63
     d8e:	f8 94       	cli
     d90:	de bf       	out	0x3e, r29	; 62
     d92:	0f be       	out	0x3f, r0	; 63
     d94:	cd bf       	out	0x3d, r28	; 61
     d96:	29 87       	std	Y+9, r18	; 0x09
     d98:	3a 87       	std	Y+10, r19	; 0x0a
     d9a:	4b 87       	std	Y+11, r20	; 0x0b
     d9c:	5c 87       	std	Y+12, r21	; 0x0c
     d9e:	6d 87       	std	Y+13, r22	; 0x0d
     da0:	7e 87       	std	Y+14, r23	; 0x0e
     da2:	8f 87       	std	Y+15, r24	; 0x0f
     da4:	98 8b       	std	Y+16, r25	; 0x10
     da6:	a9 8a       	std	Y+17, r10	; 0x11
     da8:	ba 8a       	std	Y+18, r11	; 0x12
     daa:	cb 8a       	std	Y+19, r12	; 0x13
     dac:	dc 8a       	std	Y+20, r13	; 0x14
     dae:	ed 8a       	std	Y+21, r14	; 0x15
     db0:	fe 8a       	std	Y+22, r15	; 0x16
     db2:	0f 8b       	std	Y+23, r16	; 0x17
     db4:	18 8f       	std	Y+24, r17	; 0x18
     db6:	89 84       	ldd	r8, Y+9	; 0x09
     db8:	9a 84       	ldd	r9, Y+10	; 0x0a
     dba:	ab 84       	ldd	r10, Y+11	; 0x0b
     dbc:	bc 84       	ldd	r11, Y+12	; 0x0c
     dbe:	8d 85       	ldd	r24, Y+13	; 0x0d
     dc0:	9e 85       	ldd	r25, Y+14	; 0x0e
     dc2:	af 85       	ldd	r26, Y+15	; 0x0f
     dc4:	b8 89       	ldd	r27, Y+16	; 0x10
     dc6:	89 8f       	std	Y+25, r24	; 0x19
     dc8:	9a 8f       	std	Y+26, r25	; 0x1a
     dca:	ab 8f       	std	Y+27, r26	; 0x1b
     dcc:	bc 8f       	std	Y+28, r27	; 0x1c
     dce:	49 88       	ldd	r4, Y+17	; 0x11
     dd0:	5a 88       	ldd	r5, Y+18	; 0x12
     dd2:	6b 88       	ldd	r6, Y+19	; 0x13
     dd4:	7c 88       	ldd	r7, Y+20	; 0x14
     dd6:	cd 88       	ldd	r12, Y+21	; 0x15
     dd8:	de 88       	ldd	r13, Y+22	; 0x16
     dda:	ef 88       	ldd	r14, Y+23	; 0x17
     ddc:	f8 8c       	ldd	r15, Y+24	; 0x18
     dde:	a5 01       	movw	r20, r10
     de0:	94 01       	movw	r18, r8
     de2:	c3 01       	movw	r24, r6
     de4:	b2 01       	movw	r22, r4
     de6:	0e 94 e4 0f 	call	0x1fc8	; 0x1fc8 <__mulsf3>
     dea:	6d 8f       	std	Y+29, r22	; 0x1d
     dec:	7e 8f       	std	Y+30, r23	; 0x1e
     dee:	8f 8f       	std	Y+31, r24	; 0x1f
     df0:	98 a3       	std	Y+32, r25	; 0x20
     df2:	29 8d       	ldd	r18, Y+25	; 0x19
     df4:	3a 8d       	ldd	r19, Y+26	; 0x1a
     df6:	4b 8d       	ldd	r20, Y+27	; 0x1b
     df8:	5c 8d       	ldd	r21, Y+28	; 0x1c
     dfa:	c7 01       	movw	r24, r14
     dfc:	b6 01       	movw	r22, r12
     dfe:	0e 94 e4 0f 	call	0x1fc8	; 0x1fc8 <__mulsf3>
     e02:	9b 01       	movw	r18, r22
     e04:	ac 01       	movw	r20, r24
     e06:	6d 8d       	ldd	r22, Y+29	; 0x1d
     e08:	7e 8d       	ldd	r23, Y+30	; 0x1e
     e0a:	8f 8d       	ldd	r24, Y+31	; 0x1f
     e0c:	98 a1       	ldd	r25, Y+32	; 0x20
     e0e:	0e 94 7f 0d 	call	0x1afe	; 0x1afe <__subsf3>
     e12:	16 2f       	mov	r17, r22
     e14:	46 2f       	mov	r20, r22
     e16:	57 2f       	mov	r21, r23
     e18:	68 2f       	mov	r22, r24
     e1a:	79 2f       	mov	r23, r25
     e1c:	49 83       	std	Y+1, r20	; 0x01
     e1e:	5a 83       	std	Y+2, r21	; 0x02
     e20:	6b 83       	std	Y+3, r22	; 0x03
     e22:	7c 83       	std	Y+4, r23	; 0x04
     e24:	a5 01       	movw	r20, r10
     e26:	94 01       	movw	r18, r8
     e28:	c7 01       	movw	r24, r14
     e2a:	b6 01       	movw	r22, r12
     e2c:	0e 94 e4 0f 	call	0x1fc8	; 0x1fc8 <__mulsf3>
     e30:	6b 01       	movw	r12, r22
     e32:	7c 01       	movw	r14, r24
     e34:	29 8d       	ldd	r18, Y+25	; 0x19
     e36:	3a 8d       	ldd	r19, Y+26	; 0x1a
     e38:	4b 8d       	ldd	r20, Y+27	; 0x1b
     e3a:	5c 8d       	ldd	r21, Y+28	; 0x1c
     e3c:	c3 01       	movw	r24, r6
     e3e:	b2 01       	movw	r22, r4
     e40:	0e 94 e4 0f 	call	0x1fc8	; 0x1fc8 <__mulsf3>
     e44:	9b 01       	movw	r18, r22
     e46:	ac 01       	movw	r20, r24
     e48:	c7 01       	movw	r24, r14
     e4a:	b6 01       	movw	r22, r12
     e4c:	0e 94 80 0d 	call	0x1b00	; 0x1b00 <__addsf3>
     e50:	e6 2f       	mov	r30, r22
     e52:	46 2f       	mov	r20, r22
     e54:	57 2f       	mov	r21, r23
     e56:	68 2f       	mov	r22, r24
     e58:	79 2f       	mov	r23, r25
     e5a:	4d 83       	std	Y+5, r20	; 0x05
     e5c:	5e 83       	std	Y+6, r21	; 0x06
     e5e:	6f 83       	std	Y+7, r22	; 0x07
     e60:	78 87       	std	Y+8, r23	; 0x08
     e62:	21 2f       	mov	r18, r17
     e64:	3a 81       	ldd	r19, Y+2	; 0x02
     e66:	4b 81       	ldd	r20, Y+3	; 0x03
     e68:	5c 81       	ldd	r21, Y+4	; 0x04
     e6a:	6e 2f       	mov	r22, r30
     e6c:	7e 81       	ldd	r23, Y+6	; 0x06
     e6e:	8f 81       	ldd	r24, Y+7	; 0x07
     e70:	98 85       	ldd	r25, Y+8	; 0x08
     e72:	a0 96       	adiw	r28, 0x20	; 32
     e74:	0f b6       	in	r0, 0x3f	; 63
     e76:	f8 94       	cli
     e78:	de bf       	out	0x3e, r29	; 62
     e7a:	0f be       	out	0x3f, r0	; 63
     e7c:	cd bf       	out	0x3d, r28	; 61
     e7e:	df 91       	pop	r29
     e80:	cf 91       	pop	r28
     e82:	1f 91       	pop	r17
     e84:	0f 91       	pop	r16
     e86:	ff 90       	pop	r15
     e88:	ef 90       	pop	r14
     e8a:	df 90       	pop	r13
     e8c:	cf 90       	pop	r12
     e8e:	bf 90       	pop	r11
     e90:	af 90       	pop	r10
     e92:	9f 90       	pop	r9
     e94:	8f 90       	pop	r8
     e96:	7f 90       	pop	r7
     e98:	6f 90       	pop	r6
     e9a:	5f 90       	pop	r5
     e9c:	4f 90       	pop	r4
     e9e:	08 95       	ret

00000ea0 <multiplyD2>:
     ea0:	6f 92       	push	r6
     ea2:	7f 92       	push	r7
     ea4:	8f 92       	push	r8
     ea6:	9f 92       	push	r9
     ea8:	af 92       	push	r10
     eaa:	bf 92       	push	r11
     eac:	cf 92       	push	r12
     eae:	df 92       	push	r13
     eb0:	ef 92       	push	r14
     eb2:	ff 92       	push	r15
     eb4:	0f 93       	push	r16
     eb6:	1f 93       	push	r17
     eb8:	cf 93       	push	r28
     eba:	df 93       	push	r29
     ebc:	cd b7       	in	r28, 0x3d	; 61
     ebe:	de b7       	in	r29, 0x3e	; 62
     ec0:	68 97       	sbiw	r28, 0x18	; 24
     ec2:	0f b6       	in	r0, 0x3f	; 63
     ec4:	f8 94       	cli
     ec6:	de bf       	out	0x3e, r29	; 62
     ec8:	0f be       	out	0x3f, r0	; 63
     eca:	cd bf       	out	0x3d, r28	; 61
     ecc:	3c 01       	movw	r6, r24
     ece:	89 86       	std	Y+9, r8	; 0x09
     ed0:	9a 86       	std	Y+10, r9	; 0x0a
     ed2:	ab 86       	std	Y+11, r10	; 0x0b
     ed4:	bc 86       	std	Y+12, r11	; 0x0c
     ed6:	cd 86       	std	Y+13, r12	; 0x0d
     ed8:	de 86       	std	Y+14, r13	; 0x0e
     eda:	ef 86       	std	Y+15, r14	; 0x0f
     edc:	f8 8a       	std	Y+16, r15	; 0x10
     ede:	09 8b       	std	Y+17, r16	; 0x11
     ee0:	1a 8b       	std	Y+18, r17	; 0x12
     ee2:	2b 8b       	std	Y+19, r18	; 0x13
     ee4:	3c 8b       	std	Y+20, r19	; 0x14
     ee6:	4d 8b       	std	Y+21, r20	; 0x15
     ee8:	5e 8b       	std	Y+22, r21	; 0x16
     eea:	6f 8b       	std	Y+23, r22	; 0x17
     eec:	78 8f       	std	Y+24, r23	; 0x18
     eee:	19 82       	std	Y+1, r1	; 0x01
     ef0:	1a 82       	std	Y+2, r1	; 0x02
     ef2:	1b 82       	std	Y+3, r1	; 0x03
     ef4:	1c 82       	std	Y+4, r1	; 0x04
     ef6:	80 e0       	ldi	r24, 0x00	; 0
     ef8:	90 e0       	ldi	r25, 0x00	; 0
     efa:	a0 e8       	ldi	r26, 0x80	; 128
     efc:	bf eb       	ldi	r27, 0xBF	; 191
     efe:	8d 83       	std	Y+5, r24	; 0x05
     f00:	9e 83       	std	Y+6, r25	; 0x06
     f02:	af 83       	std	Y+7, r26	; 0x07
     f04:	b8 87       	std	Y+8, r27	; 0x08
     f06:	88 e0       	ldi	r24, 0x08	; 8
     f08:	fe 01       	movw	r30, r28
     f0a:	39 96       	adiw	r30, 0x09	; 9
     f0c:	d3 01       	movw	r26, r6
     f0e:	01 90       	ld	r0, Z+
     f10:	0d 92       	st	X+, r0
     f12:	8a 95       	dec	r24
     f14:	e1 f7       	brne	.-8      	; 0xf0e <multiplyD2+0x6e>
     f16:	a9 88       	ldd	r10, Y+17	; 0x11
     f18:	ba 88       	ldd	r11, Y+18	; 0x12
     f1a:	cb 88       	ldd	r12, Y+19	; 0x13
     f1c:	dc 88       	ldd	r13, Y+20	; 0x14
     f1e:	ed 88       	ldd	r14, Y+21	; 0x15
     f20:	fe 88       	ldd	r15, Y+22	; 0x16
     f22:	0f 89       	ldd	r16, Y+23	; 0x17
     f24:	18 8d       	ldd	r17, Y+24	; 0x18
     f26:	29 81       	ldd	r18, Y+1	; 0x01
     f28:	3a 81       	ldd	r19, Y+2	; 0x02
     f2a:	4b 81       	ldd	r20, Y+3	; 0x03
     f2c:	5c 81       	ldd	r21, Y+4	; 0x04
     f2e:	6d 81       	ldd	r22, Y+5	; 0x05
     f30:	7e 81       	ldd	r23, Y+6	; 0x06
     f32:	8f 81       	ldd	r24, Y+7	; 0x07
     f34:	98 85       	ldd	r25, Y+8	; 0x08
     f36:	0e 94 b3 06 	call	0xd66	; 0xd66 <c_Mult>
     f3a:	f3 01       	movw	r30, r6
     f3c:	20 87       	std	Z+8, r18	; 0x08
     f3e:	31 87       	std	Z+9, r19	; 0x09
     f40:	42 87       	std	Z+10, r20	; 0x0a
     f42:	53 87       	std	Z+11, r21	; 0x0b
     f44:	64 87       	std	Z+12, r22	; 0x0c
     f46:	75 87       	std	Z+13, r23	; 0x0d
     f48:	86 87       	std	Z+14, r24	; 0x0e
     f4a:	97 87       	std	Z+15, r25	; 0x0f
     f4c:	c3 01       	movw	r24, r6
     f4e:	68 96       	adiw	r28, 0x18	; 24
     f50:	0f b6       	in	r0, 0x3f	; 63
     f52:	f8 94       	cli
     f54:	de bf       	out	0x3e, r29	; 62
     f56:	0f be       	out	0x3f, r0	; 63
     f58:	cd bf       	out	0x3d, r28	; 61
     f5a:	df 91       	pop	r29
     f5c:	cf 91       	pop	r28
     f5e:	1f 91       	pop	r17
     f60:	0f 91       	pop	r16
     f62:	ff 90       	pop	r15
     f64:	ef 90       	pop	r14
     f66:	df 90       	pop	r13
     f68:	cf 90       	pop	r12
     f6a:	bf 90       	pop	r11
     f6c:	af 90       	pop	r10
     f6e:	9f 90       	pop	r9
     f70:	8f 90       	pop	r8
     f72:	7f 90       	pop	r7
     f74:	6f 90       	pop	r6
     f76:	08 95       	ret

00000f78 <multiplyD4>:
     f78:	8f 92       	push	r8
     f7a:	9f 92       	push	r9
     f7c:	af 92       	push	r10
     f7e:	bf 92       	push	r11
     f80:	cf 92       	push	r12
     f82:	df 92       	push	r13
     f84:	ef 92       	push	r14
     f86:	ff 92       	push	r15
     f88:	0f 93       	push	r16
     f8a:	1f 93       	push	r17
     f8c:	cf 93       	push	r28
     f8e:	df 93       	push	r29
     f90:	cd b7       	in	r28, 0x3d	; 61
     f92:	de b7       	in	r29, 0x3e	; 62
     f94:	a0 97       	sbiw	r28, 0x20	; 32
     f96:	0f b6       	in	r0, 0x3f	; 63
     f98:	f8 94       	cli
     f9a:	de bf       	out	0x3e, r29	; 62
     f9c:	0f be       	out	0x3f, r0	; 63
     f9e:	cd bf       	out	0x3d, r28	; 61
     fa0:	4c 01       	movw	r8, r24
     fa2:	80 e0       	ldi	r24, 0x00	; 0
     fa4:	90 e0       	ldi	r25, 0x00	; 0
     fa6:	a0 e8       	ldi	r26, 0x80	; 128
     fa8:	bf e3       	ldi	r27, 0x3F	; 63
     faa:	89 83       	std	Y+1, r24	; 0x01
     fac:	9a 83       	std	Y+2, r25	; 0x02
     fae:	ab 83       	std	Y+3, r26	; 0x03
     fb0:	bc 83       	std	Y+4, r27	; 0x04
     fb2:	1d 82       	std	Y+5, r1	; 0x05
     fb4:	1e 82       	std	Y+6, r1	; 0x06
     fb6:	1f 82       	std	Y+7, r1	; 0x07
     fb8:	18 86       	std	Y+8, r1	; 0x08
     fba:	83 ef       	ldi	r24, 0xF3	; 243
     fbc:	94 e0       	ldi	r25, 0x04	; 4
     fbe:	a5 e3       	ldi	r26, 0x35	; 53
     fc0:	bf e3       	ldi	r27, 0x3F	; 63
     fc2:	89 87       	std	Y+9, r24	; 0x09
     fc4:	9a 87       	std	Y+10, r25	; 0x0a
     fc6:	ab 87       	std	Y+11, r26	; 0x0b
     fc8:	bc 87       	std	Y+12, r27	; 0x0c
     fca:	83 ef       	ldi	r24, 0xF3	; 243
     fcc:	94 e0       	ldi	r25, 0x04	; 4
     fce:	a5 e3       	ldi	r26, 0x35	; 53
     fd0:	bf eb       	ldi	r27, 0xBF	; 191
     fd2:	8d 87       	std	Y+13, r24	; 0x0d
     fd4:	9e 87       	std	Y+14, r25	; 0x0e
     fd6:	af 87       	std	Y+15, r26	; 0x0f
     fd8:	b8 8b       	std	Y+16, r27	; 0x10
     fda:	19 8a       	std	Y+17, r1	; 0x11
     fdc:	1a 8a       	std	Y+18, r1	; 0x12
     fde:	1b 8a       	std	Y+19, r1	; 0x13
     fe0:	1c 8a       	std	Y+20, r1	; 0x14
     fe2:	40 e0       	ldi	r20, 0x00	; 0
     fe4:	50 e0       	ldi	r21, 0x00	; 0
     fe6:	60 e8       	ldi	r22, 0x80	; 128
     fe8:	7f eb       	ldi	r23, 0xBF	; 191
     fea:	4d 8b       	std	Y+21, r20	; 0x15
     fec:	5e 8b       	std	Y+22, r21	; 0x16
     fee:	6f 8b       	std	Y+23, r22	; 0x17
     ff0:	78 8f       	std	Y+24, r23	; 0x18
     ff2:	89 8f       	std	Y+25, r24	; 0x19
     ff4:	9a 8f       	std	Y+26, r25	; 0x1a
     ff6:	ab 8f       	std	Y+27, r26	; 0x1b
     ff8:	bc 8f       	std	Y+28, r27	; 0x1c
     ffa:	8d 8f       	std	Y+29, r24	; 0x1d
     ffc:	9e 8f       	std	Y+30, r25	; 0x1e
     ffe:	af 8f       	std	Y+31, r26	; 0x1f
    1000:	b8 a3       	std	Y+32, r27	; 0x20
    1002:	a1 2c       	mov	r10, r1
    1004:	ba 80       	ldd	r11, Y+2	; 0x02
    1006:	cb 80       	ldd	r12, Y+3	; 0x03
    1008:	dc 80       	ldd	r13, Y+4	; 0x04
    100a:	e1 2c       	mov	r14, r1
    100c:	fe 80       	ldd	r15, Y+6	; 0x06
    100e:	0f 81       	ldd	r16, Y+7	; 0x07
    1010:	18 85       	ldd	r17, Y+8	; 0x08
    1012:	2f a5       	ldd	r18, Y+47	; 0x2f
    1014:	38 a9       	ldd	r19, Y+48	; 0x30
    1016:	49 a9       	ldd	r20, Y+49	; 0x31
    1018:	5a a9       	ldd	r21, Y+50	; 0x32
    101a:	6b a9       	ldd	r22, Y+51	; 0x33
    101c:	7c a9       	ldd	r23, Y+52	; 0x34
    101e:	8d a9       	ldd	r24, Y+53	; 0x35
    1020:	9e a9       	ldd	r25, Y+54	; 0x36
    1022:	0e 94 b3 06 	call	0xd66	; 0xd66 <c_Mult>
    1026:	f4 01       	movw	r30, r8
    1028:	20 83       	st	Z, r18
    102a:	31 83       	std	Z+1, r19	; 0x01
    102c:	42 83       	std	Z+2, r20	; 0x02
    102e:	53 83       	std	Z+3, r21	; 0x03
    1030:	64 83       	std	Z+4, r22	; 0x04
    1032:	75 83       	std	Z+5, r23	; 0x05
    1034:	86 83       	std	Z+6, r24	; 0x06
    1036:	97 83       	std	Z+7, r25	; 0x07
    1038:	a9 84       	ldd	r10, Y+9	; 0x09
    103a:	ba 84       	ldd	r11, Y+10	; 0x0a
    103c:	cb 84       	ldd	r12, Y+11	; 0x0b
    103e:	dc 84       	ldd	r13, Y+12	; 0x0c
    1040:	ed 84       	ldd	r14, Y+13	; 0x0d
    1042:	fe 84       	ldd	r15, Y+14	; 0x0e
    1044:	0f 85       	ldd	r16, Y+15	; 0x0f
    1046:	18 89       	ldd	r17, Y+16	; 0x10
    1048:	2f a9       	ldd	r18, Y+55	; 0x37
    104a:	38 ad       	ldd	r19, Y+56	; 0x38
    104c:	49 ad       	ldd	r20, Y+57	; 0x39
    104e:	5a ad       	ldd	r21, Y+58	; 0x3a
    1050:	6b ad       	ldd	r22, Y+59	; 0x3b
    1052:	7c ad       	ldd	r23, Y+60	; 0x3c
    1054:	8d ad       	ldd	r24, Y+61	; 0x3d
    1056:	9e ad       	ldd	r25, Y+62	; 0x3e
    1058:	0e 94 b3 06 	call	0xd66	; 0xd66 <c_Mult>
    105c:	f4 01       	movw	r30, r8
    105e:	20 87       	std	Z+8, r18	; 0x08
    1060:	31 87       	std	Z+9, r19	; 0x09
    1062:	42 87       	std	Z+10, r20	; 0x0a
    1064:	53 87       	std	Z+11, r21	; 0x0b
    1066:	64 87       	std	Z+12, r22	; 0x0c
    1068:	75 87       	std	Z+13, r23	; 0x0d
    106a:	86 87       	std	Z+14, r24	; 0x0e
    106c:	97 87       	std	Z+15, r25	; 0x0f
    106e:	a9 88       	ldd	r10, Y+17	; 0x11
    1070:	ba 88       	ldd	r11, Y+18	; 0x12
    1072:	cb 88       	ldd	r12, Y+19	; 0x13
    1074:	dc 88       	ldd	r13, Y+20	; 0x14
    1076:	ed 88       	ldd	r14, Y+21	; 0x15
    1078:	fe 88       	ldd	r15, Y+22	; 0x16
    107a:	0f 89       	ldd	r16, Y+23	; 0x17
    107c:	18 8d       	ldd	r17, Y+24	; 0x18
    107e:	2f ad       	ldd	r18, Y+63	; 0x3f
    1080:	21 96       	adiw	r28, 0x01	; 1
    1082:	3f ad       	ldd	r19, Y+63	; 0x3f
    1084:	21 97       	sbiw	r28, 0x01	; 1
    1086:	22 96       	adiw	r28, 0x02	; 2
    1088:	4f ad       	ldd	r20, Y+63	; 0x3f
    108a:	22 97       	sbiw	r28, 0x02	; 2
    108c:	23 96       	adiw	r28, 0x03	; 3
    108e:	5f ad       	ldd	r21, Y+63	; 0x3f
    1090:	23 97       	sbiw	r28, 0x03	; 3
    1092:	24 96       	adiw	r28, 0x04	; 4
    1094:	6f ad       	ldd	r22, Y+63	; 0x3f
    1096:	24 97       	sbiw	r28, 0x04	; 4
    1098:	25 96       	adiw	r28, 0x05	; 5
    109a:	7f ad       	ldd	r23, Y+63	; 0x3f
    109c:	25 97       	sbiw	r28, 0x05	; 5
    109e:	26 96       	adiw	r28, 0x06	; 6
    10a0:	8f ad       	ldd	r24, Y+63	; 0x3f
    10a2:	26 97       	sbiw	r28, 0x06	; 6
    10a4:	27 96       	adiw	r28, 0x07	; 7
    10a6:	9f ad       	ldd	r25, Y+63	; 0x3f
    10a8:	27 97       	sbiw	r28, 0x07	; 7
    10aa:	0e 94 b3 06 	call	0xd66	; 0xd66 <c_Mult>
    10ae:	f4 01       	movw	r30, r8
    10b0:	20 8b       	std	Z+16, r18	; 0x10
    10b2:	31 8b       	std	Z+17, r19	; 0x11
    10b4:	42 8b       	std	Z+18, r20	; 0x12
    10b6:	53 8b       	std	Z+19, r21	; 0x13
    10b8:	64 8b       	std	Z+20, r22	; 0x14
    10ba:	75 8b       	std	Z+21, r23	; 0x15
    10bc:	86 8b       	std	Z+22, r24	; 0x16
    10be:	97 8b       	std	Z+23, r25	; 0x17
    10c0:	a9 8c       	ldd	r10, Y+25	; 0x19
    10c2:	ba 8c       	ldd	r11, Y+26	; 0x1a
    10c4:	cb 8c       	ldd	r12, Y+27	; 0x1b
    10c6:	dc 8c       	ldd	r13, Y+28	; 0x1c
    10c8:	ed 8c       	ldd	r14, Y+29	; 0x1d
    10ca:	fe 8c       	ldd	r15, Y+30	; 0x1e
    10cc:	0f 8d       	ldd	r16, Y+31	; 0x1f
    10ce:	18 a1       	ldd	r17, Y+32	; 0x20
    10d0:	28 96       	adiw	r28, 0x08	; 8
    10d2:	2f ad       	ldd	r18, Y+63	; 0x3f
    10d4:	28 97       	sbiw	r28, 0x08	; 8
    10d6:	29 96       	adiw	r28, 0x09	; 9
    10d8:	3f ad       	ldd	r19, Y+63	; 0x3f
    10da:	29 97       	sbiw	r28, 0x09	; 9
    10dc:	2a 96       	adiw	r28, 0x0a	; 10
    10de:	4f ad       	ldd	r20, Y+63	; 0x3f
    10e0:	2a 97       	sbiw	r28, 0x0a	; 10
    10e2:	2b 96       	adiw	r28, 0x0b	; 11
    10e4:	5f ad       	ldd	r21, Y+63	; 0x3f
    10e6:	2b 97       	sbiw	r28, 0x0b	; 11
    10e8:	2c 96       	adiw	r28, 0x0c	; 12
    10ea:	6f ad       	ldd	r22, Y+63	; 0x3f
    10ec:	2c 97       	sbiw	r28, 0x0c	; 12
    10ee:	2d 96       	adiw	r28, 0x0d	; 13
    10f0:	7f ad       	ldd	r23, Y+63	; 0x3f
    10f2:	2d 97       	sbiw	r28, 0x0d	; 13
    10f4:	2e 96       	adiw	r28, 0x0e	; 14
    10f6:	8f ad       	ldd	r24, Y+63	; 0x3f
    10f8:	2e 97       	sbiw	r28, 0x0e	; 14
    10fa:	2f 96       	adiw	r28, 0x0f	; 15
    10fc:	9f ad       	ldd	r25, Y+63	; 0x3f
    10fe:	2f 97       	sbiw	r28, 0x0f	; 15
    1100:	0e 94 b3 06 	call	0xd66	; 0xd66 <c_Mult>
    1104:	f4 01       	movw	r30, r8
    1106:	20 8f       	std	Z+24, r18	; 0x18
    1108:	31 8f       	std	Z+25, r19	; 0x19
    110a:	42 8f       	std	Z+26, r20	; 0x1a
    110c:	53 8f       	std	Z+27, r21	; 0x1b
    110e:	64 8f       	std	Z+28, r22	; 0x1c
    1110:	75 8f       	std	Z+29, r23	; 0x1d
    1112:	86 8f       	std	Z+30, r24	; 0x1e
    1114:	97 8f       	std	Z+31, r25	; 0x1f
    1116:	c4 01       	movw	r24, r8
    1118:	a0 96       	adiw	r28, 0x20	; 32
    111a:	0f b6       	in	r0, 0x3f	; 63
    111c:	f8 94       	cli
    111e:	de bf       	out	0x3e, r29	; 62
    1120:	0f be       	out	0x3f, r0	; 63
    1122:	cd bf       	out	0x3d, r28	; 61
    1124:	df 91       	pop	r29
    1126:	cf 91       	pop	r28
    1128:	1f 91       	pop	r17
    112a:	0f 91       	pop	r16
    112c:	ff 90       	pop	r15
    112e:	ef 90       	pop	r14
    1130:	df 90       	pop	r13
    1132:	cf 90       	pop	r12
    1134:	bf 90       	pop	r11
    1136:	af 90       	pop	r10
    1138:	9f 90       	pop	r9
    113a:	8f 90       	pop	r8
    113c:	08 95       	ret

0000113e <eval_Func_8>:
    113e:	2f 92       	push	r2
    1140:	3f 92       	push	r3
    1142:	4f 92       	push	r4
    1144:	5f 92       	push	r5
    1146:	6f 92       	push	r6
    1148:	7f 92       	push	r7
    114a:	8f 92       	push	r8
    114c:	9f 92       	push	r9
    114e:	af 92       	push	r10
    1150:	bf 92       	push	r11
    1152:	cf 92       	push	r12
    1154:	df 92       	push	r13
    1156:	ef 92       	push	r14
    1158:	ff 92       	push	r15
    115a:	0f 93       	push	r16
    115c:	1f 93       	push	r17
    115e:	cf 93       	push	r28
    1160:	df 93       	push	r29
    1162:	00 d0       	rcall	.+0      	; 0x1164 <eval_Func_8+0x26>
    1164:	00 d0       	rcall	.+0      	; 0x1166 <eval_Func_8+0x28>
    1166:	cd b7       	in	r28, 0x3d	; 61
    1168:	de b7       	in	r29, 0x3e	; 62
    116a:	6d 96       	adiw	r28, 0x1d	; 29
    116c:	8c ad       	ldd	r24, Y+60	; 0x3c
    116e:	9d ad       	ldd	r25, Y+61	; 0x3d
    1170:	ae ad       	ldd	r26, Y+62	; 0x3e
    1172:	bf ad       	ldd	r27, Y+63	; 0x3f
    1174:	6d 97       	sbiw	r28, 0x1d	; 29
    1176:	89 83       	std	Y+1, r24	; 0x01
    1178:	9a 83       	std	Y+2, r25	; 0x02
    117a:	ab 83       	std	Y+3, r26	; 0x03
    117c:	bc 83       	std	Y+4, r27	; 0x04
    117e:	20 e0       	ldi	r18, 0x00	; 0
    1180:	30 e0       	ldi	r19, 0x00	; 0
    1182:	40 e0       	ldi	r20, 0x00	; 0
    1184:	5f e3       	ldi	r21, 0x3F	; 63
    1186:	69 8d       	ldd	r22, Y+25	; 0x19
    1188:	7a 8d       	ldd	r23, Y+26	; 0x1a
    118a:	8b 8d       	ldd	r24, Y+27	; 0x1b
    118c:	9c 8d       	ldd	r25, Y+28	; 0x1c
    118e:	0e 94 e4 0f 	call	0x1fc8	; 0x1fc8 <__mulsf3>
    1192:	6b 01       	movw	r12, r22
    1194:	7c 01       	movw	r14, r24
    1196:	de 01       	movw	r26, r28
    1198:	59 96       	adiw	r26, 0x19	; 25
    119a:	1d 01       	movw	r2, r26
    119c:	01 e0       	ldi	r16, 0x01	; 1
    119e:	10 e0       	ldi	r17, 0x00	; 0
    11a0:	f1 01       	movw	r30, r2
    11a2:	40 84       	ldd	r4, Z+8	; 0x08
    11a4:	51 84       	ldd	r5, Z+9	; 0x09
    11a6:	62 84       	ldd	r6, Z+10	; 0x0a
    11a8:	73 84       	ldd	r7, Z+11	; 0x0b
    11aa:	84 84       	ldd	r8, Z+12	; 0x0c
    11ac:	95 84       	ldd	r9, Z+13	; 0x0d
    11ae:	a6 84       	ldd	r10, Z+14	; 0x0e
    11b0:	b7 84       	ldd	r11, Z+15	; 0x0f
    11b2:	2f e6       	ldi	r18, 0x6F	; 111
    11b4:	32 e1       	ldi	r19, 0x12	; 18
    11b6:	43 e8       	ldi	r20, 0x83	; 131
    11b8:	5a e3       	ldi	r21, 0x3A	; 58
    11ba:	c3 01       	movw	r24, r6
    11bc:	b2 01       	movw	r22, r4
    11be:	0e 94 8f 0f 	call	0x1f1e	; 0x1f1e <__gesf2>
    11c2:	18 16       	cp	r1, r24
    11c4:	54 f0       	brlt	.+20     	; 0x11da <eval_Func_8+0x9c>
    11c6:	2f e6       	ldi	r18, 0x6F	; 111
    11c8:	32 e1       	ldi	r19, 0x12	; 18
    11ca:	43 e8       	ldi	r20, 0x83	; 131
    11cc:	5a eb       	ldi	r21, 0xBA	; 186
    11ce:	c3 01       	movw	r24, r6
    11d0:	b2 01       	movw	r22, r4
    11d2:	0e 94 ec 0d 	call	0x1bd8	; 0x1bd8 <__cmpsf2>
    11d6:	88 23       	and	r24, r24
    11d8:	dc f4       	brge	.+54     	; 0x1210 <eval_Func_8+0xd2>
    11da:	b8 01       	movw	r22, r16
    11dc:	01 2e       	mov	r0, r17
    11de:	00 0c       	add	r0, r0
    11e0:	88 0b       	sbc	r24, r24
    11e2:	99 0b       	sbc	r25, r25
    11e4:	0e 94 a0 0e 	call	0x1d40	; 0x1d40 <__floatsisf>
    11e8:	29 81       	ldd	r18, Y+1	; 0x01
    11ea:	3a 81       	ldd	r19, Y+2	; 0x02
    11ec:	4b 81       	ldd	r20, Y+3	; 0x03
    11ee:	5c 81       	ldd	r21, Y+4	; 0x04
    11f0:	0e 94 e4 0f 	call	0x1fc8	; 0x1fc8 <__mulsf3>
    11f4:	0e 94 f1 0d 	call	0x1be2	; 0x1be2 <cos>
    11f8:	a3 01       	movw	r20, r6
    11fa:	92 01       	movw	r18, r4
    11fc:	0e 94 e4 0f 	call	0x1fc8	; 0x1fc8 <__mulsf3>
    1200:	9b 01       	movw	r18, r22
    1202:	ac 01       	movw	r20, r24
    1204:	c7 01       	movw	r24, r14
    1206:	b6 01       	movw	r22, r12
    1208:	0e 94 80 0d 	call	0x1b00	; 0x1b00 <__addsf3>
    120c:	6b 01       	movw	r12, r22
    120e:	7c 01       	movw	r14, r24
    1210:	2f e6       	ldi	r18, 0x6F	; 111
    1212:	32 e1       	ldi	r19, 0x12	; 18
    1214:	43 e8       	ldi	r20, 0x83	; 131
    1216:	5a e3       	ldi	r21, 0x3A	; 58
    1218:	c5 01       	movw	r24, r10
    121a:	b4 01       	movw	r22, r8
    121c:	0e 94 8f 0f 	call	0x1f1e	; 0x1f1e <__gesf2>
    1220:	18 16       	cp	r1, r24
    1222:	54 f0       	brlt	.+20     	; 0x1238 <eval_Func_8+0xfa>
    1224:	2f e6       	ldi	r18, 0x6F	; 111
    1226:	32 e1       	ldi	r19, 0x12	; 18
    1228:	43 e8       	ldi	r20, 0x83	; 131
    122a:	5a eb       	ldi	r21, 0xBA	; 186
    122c:	c5 01       	movw	r24, r10
    122e:	b4 01       	movw	r22, r8
    1230:	0e 94 ec 0d 	call	0x1bd8	; 0x1bd8 <__cmpsf2>
    1234:	88 23       	and	r24, r24
    1236:	dc f4       	brge	.+54     	; 0x126e <eval_Func_8+0x130>
    1238:	b8 01       	movw	r22, r16
    123a:	01 2e       	mov	r0, r17
    123c:	00 0c       	add	r0, r0
    123e:	88 0b       	sbc	r24, r24
    1240:	99 0b       	sbc	r25, r25
    1242:	0e 94 a0 0e 	call	0x1d40	; 0x1d40 <__floatsisf>
    1246:	29 81       	ldd	r18, Y+1	; 0x01
    1248:	3a 81       	ldd	r19, Y+2	; 0x02
    124a:	4b 81       	ldd	r20, Y+3	; 0x03
    124c:	5c 81       	ldd	r21, Y+4	; 0x04
    124e:	0e 94 e4 0f 	call	0x1fc8	; 0x1fc8 <__mulsf3>
    1252:	0e 94 51 10 	call	0x20a2	; 0x20a2 <sin>
    1256:	a5 01       	movw	r20, r10
    1258:	94 01       	movw	r18, r8
    125a:	0e 94 e4 0f 	call	0x1fc8	; 0x1fc8 <__mulsf3>
    125e:	9b 01       	movw	r18, r22
    1260:	ac 01       	movw	r20, r24
    1262:	c7 01       	movw	r24, r14
    1264:	b6 01       	movw	r22, r12
    1266:	0e 94 80 0d 	call	0x1b00	; 0x1b00 <__addsf3>
    126a:	6b 01       	movw	r12, r22
    126c:	7c 01       	movw	r14, r24
    126e:	0f 5f       	subi	r16, 0xFF	; 255
    1270:	1f 4f       	sbci	r17, 0xFF	; 255
    1272:	f8 e0       	ldi	r31, 0x08	; 8
    1274:	2f 0e       	add	r2, r31
    1276:	31 1c       	adc	r3, r1
    1278:	08 30       	cpi	r16, 0x08	; 8
    127a:	11 05       	cpc	r17, r1
    127c:	09 f0       	breq	.+2      	; 0x1280 <eval_Func_8+0x142>
    127e:	90 cf       	rjmp	.-224    	; 0x11a0 <eval_Func_8+0x62>
    1280:	c7 01       	movw	r24, r14
    1282:	b6 01       	movw	r22, r12
    1284:	0f 90       	pop	r0
    1286:	0f 90       	pop	r0
    1288:	0f 90       	pop	r0
    128a:	0f 90       	pop	r0
    128c:	df 91       	pop	r29
    128e:	cf 91       	pop	r28
    1290:	1f 91       	pop	r17
    1292:	0f 91       	pop	r16
    1294:	ff 90       	pop	r15
    1296:	ef 90       	pop	r14
    1298:	df 90       	pop	r13
    129a:	cf 90       	pop	r12
    129c:	bf 90       	pop	r11
    129e:	af 90       	pop	r10
    12a0:	9f 90       	pop	r9
    12a2:	8f 90       	pop	r8
    12a4:	7f 90       	pop	r7
    12a6:	6f 90       	pop	r6
    12a8:	5f 90       	pop	r5
    12aa:	4f 90       	pop	r4
    12ac:	3f 90       	pop	r3
    12ae:	2f 90       	pop	r2
    12b0:	08 95       	ret

000012b2 <evalX_k>:
    12b2:	6f 92       	push	r6
    12b4:	7f 92       	push	r7
    12b6:	8f 92       	push	r8
    12b8:	9f 92       	push	r9
    12ba:	af 92       	push	r10
    12bc:	bf 92       	push	r11
    12be:	cf 92       	push	r12
    12c0:	df 92       	push	r13
    12c2:	ef 92       	push	r14
    12c4:	ff 92       	push	r15
    12c6:	0f 93       	push	r16
    12c8:	1f 93       	push	r17
    12ca:	cf 93       	push	r28
    12cc:	df 93       	push	r29
    12ce:	cd b7       	in	r28, 0x3d	; 61
    12d0:	de b7       	in	r29, 0x3e	; 62
    12d2:	c0 5d       	subi	r28, 0xD0	; 208
    12d4:	d1 09       	sbc	r29, r1
    12d6:	0f b6       	in	r0, 0x3f	; 63
    12d8:	f8 94       	cli
    12da:	de bf       	out	0x3e, r29	; 62
    12dc:	0f be       	out	0x3f, r0	; 63
    12de:	cd bf       	out	0x3d, r28	; 61
    12e0:	3c 01       	movw	r6, r24
    12e2:	8b 01       	movw	r16, r22
    12e4:	cb 01       	movw	r24, r22
    12e6:	0e 94 8f 00 	call	0x11e	; 0x11e <Unitize>
    12ea:	9e 01       	movw	r18, r28
    12ec:	2f 5c       	subi	r18, 0xCF	; 207
    12ee:	3f 4f       	sbci	r19, 0xFF	; 255
    12f0:	ae 01       	movw	r20, r28
    12f2:	4f 5d       	subi	r20, 0xDF	; 223
    12f4:	5f 4f       	sbci	r21, 0xFF	; 255
    12f6:	be 01       	movw	r22, r28
    12f8:	6f 5e       	subi	r22, 0xEF	; 239
    12fa:	7f 4f       	sbci	r23, 0xFF	; 255
    12fc:	ce 01       	movw	r24, r28
    12fe:	01 96       	adiw	r24, 0x01	; 1
    1300:	0e 94 37 01 	call	0x26e	; 0x26e <populate_8>
    1304:	89 80       	ldd	r8, Y+1	; 0x01
    1306:	9a 80       	ldd	r9, Y+2	; 0x02
    1308:	ab 80       	ldd	r10, Y+3	; 0x03
    130a:	bc 80       	ldd	r11, Y+4	; 0x04
    130c:	cd 80       	ldd	r12, Y+5	; 0x05
    130e:	de 80       	ldd	r13, Y+6	; 0x06
    1310:	ef 80       	ldd	r14, Y+7	; 0x07
    1312:	f8 84       	ldd	r15, Y+8	; 0x08
    1314:	09 85       	ldd	r16, Y+9	; 0x09
    1316:	1a 85       	ldd	r17, Y+10	; 0x0a
    1318:	2b 85       	ldd	r18, Y+11	; 0x0b
    131a:	3c 85       	ldd	r19, Y+12	; 0x0c
    131c:	4d 85       	ldd	r20, Y+13	; 0x0d
    131e:	5e 85       	ldd	r21, Y+14	; 0x0e
    1320:	6f 85       	ldd	r22, Y+15	; 0x0f
    1322:	78 89       	ldd	r23, Y+16	; 0x10
    1324:	ce 01       	movw	r24, r28
    1326:	8f 53       	subi	r24, 0x3F	; 63
    1328:	9f 4f       	sbci	r25, 0xFF	; 255
    132a:	0e 94 ad 00 	call	0x15a	; 0x15a <multiplyF2>
    132e:	80 e1       	ldi	r24, 0x10	; 16
    1330:	fe 01       	movw	r30, r28
    1332:	ef 53       	subi	r30, 0x3F	; 63
    1334:	ff 4f       	sbci	r31, 0xFF	; 255
    1336:	de 01       	movw	r26, r28
    1338:	11 96       	adiw	r26, 0x01	; 1
    133a:	01 90       	ld	r0, Z+
    133c:	0d 92       	st	X+, r0
    133e:	8a 95       	dec	r24
    1340:	e1 f7       	brne	.-8      	; 0x133a <evalX_k+0x88>
    1342:	89 88       	ldd	r8, Y+17	; 0x11
    1344:	9a 88       	ldd	r9, Y+18	; 0x12
    1346:	ab 88       	ldd	r10, Y+19	; 0x13
    1348:	bc 88       	ldd	r11, Y+20	; 0x14
    134a:	cd 88       	ldd	r12, Y+21	; 0x15
    134c:	de 88       	ldd	r13, Y+22	; 0x16
    134e:	ef 88       	ldd	r14, Y+23	; 0x17
    1350:	f8 8c       	ldd	r15, Y+24	; 0x18
    1352:	09 8d       	ldd	r16, Y+25	; 0x19
    1354:	1a 8d       	ldd	r17, Y+26	; 0x1a
    1356:	2b 8d       	ldd	r18, Y+27	; 0x1b
    1358:	3c 8d       	ldd	r19, Y+28	; 0x1c
    135a:	4d 8d       	ldd	r20, Y+29	; 0x1d
    135c:	5e 8d       	ldd	r21, Y+30	; 0x1e
    135e:	6f 8d       	ldd	r22, Y+31	; 0x1f
    1360:	78 a1       	ldd	r23, Y+32	; 0x20
    1362:	ce 01       	movw	r24, r28
    1364:	8f 53       	subi	r24, 0x3F	; 63
    1366:	9f 4f       	sbci	r25, 0xFF	; 255
    1368:	0e 94 ad 00 	call	0x15a	; 0x15a <multiplyF2>
    136c:	80 e1       	ldi	r24, 0x10	; 16
    136e:	fe 01       	movw	r30, r28
    1370:	ef 53       	subi	r30, 0x3F	; 63
    1372:	ff 4f       	sbci	r31, 0xFF	; 255
    1374:	de 01       	movw	r26, r28
    1376:	51 96       	adiw	r26, 0x11	; 17
    1378:	01 90       	ld	r0, Z+
    137a:	0d 92       	st	X+, r0
    137c:	8a 95       	dec	r24
    137e:	e1 f7       	brne	.-8      	; 0x1378 <evalX_k+0xc6>
    1380:	89 a0       	ldd	r8, Y+33	; 0x21
    1382:	9a a0       	ldd	r9, Y+34	; 0x22
    1384:	ab a0       	ldd	r10, Y+35	; 0x23
    1386:	bc a0       	ldd	r11, Y+36	; 0x24
    1388:	cd a0       	ldd	r12, Y+37	; 0x25
    138a:	de a0       	ldd	r13, Y+38	; 0x26
    138c:	ef a0       	ldd	r14, Y+39	; 0x27
    138e:	f8 a4       	ldd	r15, Y+40	; 0x28
    1390:	09 a5       	ldd	r16, Y+41	; 0x29
    1392:	1a a5       	ldd	r17, Y+42	; 0x2a
    1394:	2b a5       	ldd	r18, Y+43	; 0x2b
    1396:	3c a5       	ldd	r19, Y+44	; 0x2c
    1398:	4d a5       	ldd	r20, Y+45	; 0x2d
    139a:	5e a5       	ldd	r21, Y+46	; 0x2e
    139c:	6f a5       	ldd	r22, Y+47	; 0x2f
    139e:	78 a9       	ldd	r23, Y+48	; 0x30
    13a0:	ce 01       	movw	r24, r28
    13a2:	8f 53       	subi	r24, 0x3F	; 63
    13a4:	9f 4f       	sbci	r25, 0xFF	; 255
    13a6:	0e 94 ad 00 	call	0x15a	; 0x15a <multiplyF2>
    13aa:	80 e1       	ldi	r24, 0x10	; 16
    13ac:	fe 01       	movw	r30, r28
    13ae:	ef 53       	subi	r30, 0x3F	; 63
    13b0:	ff 4f       	sbci	r31, 0xFF	; 255
    13b2:	de 01       	movw	r26, r28
    13b4:	91 96       	adiw	r26, 0x21	; 33
    13b6:	01 90       	ld	r0, Z+
    13b8:	0d 92       	st	X+, r0
    13ba:	8a 95       	dec	r24
    13bc:	e1 f7       	brne	.-8      	; 0x13b6 <evalX_k+0x104>
    13be:	89 a8       	ldd	r8, Y+49	; 0x31
    13c0:	9a a8       	ldd	r9, Y+50	; 0x32
    13c2:	ab a8       	ldd	r10, Y+51	; 0x33
    13c4:	bc a8       	ldd	r11, Y+52	; 0x34
    13c6:	cd a8       	ldd	r12, Y+53	; 0x35
    13c8:	de a8       	ldd	r13, Y+54	; 0x36
    13ca:	ef a8       	ldd	r14, Y+55	; 0x37
    13cc:	f8 ac       	ldd	r15, Y+56	; 0x38
    13ce:	09 ad       	ldd	r16, Y+57	; 0x39
    13d0:	1a ad       	ldd	r17, Y+58	; 0x3a
    13d2:	2b ad       	ldd	r18, Y+59	; 0x3b
    13d4:	3c ad       	ldd	r19, Y+60	; 0x3c
    13d6:	4d ad       	ldd	r20, Y+61	; 0x3d
    13d8:	5e ad       	ldd	r21, Y+62	; 0x3e
    13da:	6f ad       	ldd	r22, Y+63	; 0x3f
    13dc:	21 96       	adiw	r28, 0x01	; 1
    13de:	7f ad       	ldd	r23, Y+63	; 0x3f
    13e0:	21 97       	sbiw	r28, 0x01	; 1
    13e2:	ce 01       	movw	r24, r28
    13e4:	8f 53       	subi	r24, 0x3F	; 63
    13e6:	9f 4f       	sbci	r25, 0xFF	; 255
    13e8:	0e 94 ad 00 	call	0x15a	; 0x15a <multiplyF2>
    13ec:	80 e1       	ldi	r24, 0x10	; 16
    13ee:	fe 01       	movw	r30, r28
    13f0:	ef 53       	subi	r30, 0x3F	; 63
    13f2:	ff 4f       	sbci	r31, 0xFF	; 255
    13f4:	de 01       	movw	r26, r28
    13f6:	d1 96       	adiw	r26, 0x31	; 49
    13f8:	01 90       	ld	r0, Z+
    13fa:	0d 92       	st	X+, r0
    13fc:	8a 95       	dec	r24
    13fe:	e1 f7       	brne	.-8      	; 0x13f8 <evalX_k+0x146>
    1400:	89 88       	ldd	r8, Y+17	; 0x11
    1402:	9a 88       	ldd	r9, Y+18	; 0x12
    1404:	ab 88       	ldd	r10, Y+19	; 0x13
    1406:	bc 88       	ldd	r11, Y+20	; 0x14
    1408:	cd 88       	ldd	r12, Y+21	; 0x15
    140a:	de 88       	ldd	r13, Y+22	; 0x16
    140c:	ef 88       	ldd	r14, Y+23	; 0x17
    140e:	f8 8c       	ldd	r15, Y+24	; 0x18
    1410:	09 8d       	ldd	r16, Y+25	; 0x19
    1412:	1a 8d       	ldd	r17, Y+26	; 0x1a
    1414:	2b 8d       	ldd	r18, Y+27	; 0x1b
    1416:	3c 8d       	ldd	r19, Y+28	; 0x1c
    1418:	4d 8d       	ldd	r20, Y+29	; 0x1d
    141a:	5e 8d       	ldd	r21, Y+30	; 0x1e
    141c:	6f 8d       	ldd	r22, Y+31	; 0x1f
    141e:	78 a1       	ldd	r23, Y+32	; 0x20
    1420:	ce 01       	movw	r24, r28
    1422:	8f 57       	subi	r24, 0x7F	; 127
    1424:	9f 4f       	sbci	r25, 0xFF	; 255
    1426:	0e 94 50 07 	call	0xea0	; 0xea0 <multiplyD2>
    142a:	89 a8       	ldd	r8, Y+49	; 0x31
    142c:	9a a8       	ldd	r9, Y+50	; 0x32
    142e:	ab a8       	ldd	r10, Y+51	; 0x33
    1430:	bc a8       	ldd	r11, Y+52	; 0x34
    1432:	cd a8       	ldd	r12, Y+53	; 0x35
    1434:	de a8       	ldd	r13, Y+54	; 0x36
    1436:	ef a8       	ldd	r14, Y+55	; 0x37
    1438:	f8 ac       	ldd	r15, Y+56	; 0x38
    143a:	09 ad       	ldd	r16, Y+57	; 0x39
    143c:	1a ad       	ldd	r17, Y+58	; 0x3a
    143e:	2b ad       	ldd	r18, Y+59	; 0x3b
    1440:	3c ad       	ldd	r19, Y+60	; 0x3c
    1442:	4d ad       	ldd	r20, Y+61	; 0x3d
    1444:	5e ad       	ldd	r21, Y+62	; 0x3e
    1446:	6f ad       	ldd	r22, Y+63	; 0x3f
    1448:	21 96       	adiw	r28, 0x01	; 1
    144a:	7f ad       	ldd	r23, Y+63	; 0x3f
    144c:	21 97       	sbiw	r28, 0x01	; 1
    144e:	ce 01       	movw	r24, r28
    1450:	8f 56       	subi	r24, 0x6F	; 111
    1452:	9f 4f       	sbci	r25, 0xFF	; 255
    1454:	0e 94 50 07 	call	0xea0	; 0xea0 <multiplyD2>
    1458:	8d b7       	in	r24, 0x3d	; 61
    145a:	9e b7       	in	r25, 0x3e	; 62
    145c:	40 97       	sbiw	r24, 0x10	; 16
    145e:	0f b6       	in	r0, 0x3f	; 63
    1460:	f8 94       	cli
    1462:	9e bf       	out	0x3e, r25	; 62
    1464:	0f be       	out	0x3f, r0	; 63
    1466:	8d bf       	out	0x3d, r24	; 61
    1468:	ad b7       	in	r26, 0x3d	; 61
    146a:	be b7       	in	r27, 0x3e	; 62
    146c:	11 96       	adiw	r26, 0x01	; 1
    146e:	80 e1       	ldi	r24, 0x10	; 16
    1470:	fe 01       	movw	r30, r28
    1472:	ef 57       	subi	r30, 0x7F	; 127
    1474:	ff 4f       	sbci	r31, 0xFF	; 255
    1476:	01 90       	ld	r0, Z+
    1478:	0d 92       	st	X+, r0
    147a:	8a 95       	dec	r24
    147c:	e1 f7       	brne	.-8      	; 0x1476 <evalX_k+0x1c4>
    147e:	89 80       	ldd	r8, Y+1	; 0x01
    1480:	9a 80       	ldd	r9, Y+2	; 0x02
    1482:	ab 80       	ldd	r10, Y+3	; 0x03
    1484:	bc 80       	ldd	r11, Y+4	; 0x04
    1486:	cd 80       	ldd	r12, Y+5	; 0x05
    1488:	de 80       	ldd	r13, Y+6	; 0x06
    148a:	ef 80       	ldd	r14, Y+7	; 0x07
    148c:	f8 84       	ldd	r15, Y+8	; 0x08
    148e:	09 85       	ldd	r16, Y+9	; 0x09
    1490:	1a 85       	ldd	r17, Y+10	; 0x0a
    1492:	2b 85       	ldd	r18, Y+11	; 0x0b
    1494:	3c 85       	ldd	r19, Y+12	; 0x0c
    1496:	4d 85       	ldd	r20, Y+13	; 0x0d
    1498:	5e 85       	ldd	r21, Y+14	; 0x0e
    149a:	6f 85       	ldd	r22, Y+15	; 0x0f
    149c:	78 89       	ldd	r23, Y+16	; 0x10
    149e:	ce 01       	movw	r24, r28
    14a0:	8f 5b       	subi	r24, 0xBF	; 191
    14a2:	9f 4f       	sbci	r25, 0xFF	; 255
    14a4:	0e 94 41 04 	call	0x882	; 0x882 <combine_two>
    14a8:	8d b7       	in	r24, 0x3d	; 61
    14aa:	9e b7       	in	r25, 0x3e	; 62
    14ac:	40 97       	sbiw	r24, 0x10	; 16
    14ae:	0f b6       	in	r0, 0x3f	; 63
    14b0:	f8 94       	cli
    14b2:	9e bf       	out	0x3e, r25	; 62
    14b4:	0f be       	out	0x3f, r0	; 63
    14b6:	8d bf       	out	0x3d, r24	; 61
    14b8:	ad b7       	in	r26, 0x3d	; 61
    14ba:	be b7       	in	r27, 0x3e	; 62
    14bc:	11 96       	adiw	r26, 0x01	; 1
    14be:	80 e1       	ldi	r24, 0x10	; 16
    14c0:	fe 01       	movw	r30, r28
    14c2:	ef 56       	subi	r30, 0x6F	; 111
    14c4:	ff 4f       	sbci	r31, 0xFF	; 255
    14c6:	01 90       	ld	r0, Z+
    14c8:	0d 92       	st	X+, r0
    14ca:	8a 95       	dec	r24
    14cc:	e1 f7       	brne	.-8      	; 0x14c6 <evalX_k+0x214>
    14ce:	89 a0       	ldd	r8, Y+33	; 0x21
    14d0:	9a a0       	ldd	r9, Y+34	; 0x22
    14d2:	ab a0       	ldd	r10, Y+35	; 0x23
    14d4:	bc a0       	ldd	r11, Y+36	; 0x24
    14d6:	cd a0       	ldd	r12, Y+37	; 0x25
    14d8:	de a0       	ldd	r13, Y+38	; 0x26
    14da:	ef a0       	ldd	r14, Y+39	; 0x27
    14dc:	f8 a4       	ldd	r15, Y+40	; 0x28
    14de:	09 a5       	ldd	r16, Y+41	; 0x29
    14e0:	1a a5       	ldd	r17, Y+42	; 0x2a
    14e2:	2b a5       	ldd	r18, Y+43	; 0x2b
    14e4:	3c a5       	ldd	r19, Y+44	; 0x2c
    14e6:	4d a5       	ldd	r20, Y+45	; 0x2d
    14e8:	5e a5       	ldd	r21, Y+46	; 0x2e
    14ea:	6f a5       	ldd	r22, Y+47	; 0x2f
    14ec:	78 a9       	ldd	r23, Y+48	; 0x30
    14ee:	ce 01       	movw	r24, r28
    14f0:	8f 59       	subi	r24, 0x9F	; 159
    14f2:	9f 4f       	sbci	r25, 0xFF	; 255
    14f4:	0e 94 41 04 	call	0x882	; 0x882 <combine_two>
    14f8:	8d b7       	in	r24, 0x3d	; 61
    14fa:	9e b7       	in	r25, 0x3e	; 62
    14fc:	80 96       	adiw	r24, 0x20	; 32
    14fe:	0f b6       	in	r0, 0x3f	; 63
    1500:	f8 94       	cli
    1502:	de bf       	out	0x3e, r29	; 62
    1504:	0f be       	out	0x3f, r0	; 63
    1506:	cd bf       	out	0x3d, r28	; 61
    1508:	80 97       	sbiw	r24, 0x20	; 32
    150a:	0f b6       	in	r0, 0x3f	; 63
    150c:	f8 94       	cli
    150e:	9e bf       	out	0x3e, r25	; 62
    1510:	0f be       	out	0x3f, r0	; 63
    1512:	8d bf       	out	0x3d, r24	; 61
    1514:	ad b7       	in	r26, 0x3d	; 61
    1516:	be b7       	in	r27, 0x3e	; 62
    1518:	11 96       	adiw	r26, 0x01	; 1
    151a:	80 e2       	ldi	r24, 0x20	; 32
    151c:	fe 01       	movw	r30, r28
    151e:	ef 59       	subi	r30, 0x9F	; 159
    1520:	ff 4f       	sbci	r31, 0xFF	; 255
    1522:	01 90       	ld	r0, Z+
    1524:	0d 92       	st	X+, r0
    1526:	8a 95       	dec	r24
    1528:	e1 f7       	brne	.-8      	; 0x1522 <evalX_k+0x270>
    152a:	ce 01       	movw	r24, r28
    152c:	8f 55       	subi	r24, 0x5F	; 95
    152e:	9f 4f       	sbci	r25, 0xFF	; 255
    1530:	0e 94 bc 07 	call	0xf78	; 0xf78 <multiplyD4>
    1534:	8d b7       	in	r24, 0x3d	; 61
    1536:	9e b7       	in	r25, 0x3e	; 62
    1538:	80 96       	adiw	r24, 0x20	; 32
    153a:	0f b6       	in	r0, 0x3f	; 63
    153c:	f8 94       	cli
    153e:	de bf       	out	0x3e, r29	; 62
    1540:	0f be       	out	0x3f, r0	; 63
    1542:	cd bf       	out	0x3d, r28	; 61
    1544:	80 97       	sbiw	r24, 0x20	; 32
    1546:	0f b6       	in	r0, 0x3f	; 63
    1548:	f8 94       	cli
    154a:	9e bf       	out	0x3e, r25	; 62
    154c:	0f be       	out	0x3f, r0	; 63
    154e:	8d bf       	out	0x3d, r24	; 61
    1550:	ad b7       	in	r26, 0x3d	; 61
    1552:	be b7       	in	r27, 0x3e	; 62
    1554:	11 96       	adiw	r26, 0x01	; 1
    1556:	80 e2       	ldi	r24, 0x20	; 32
    1558:	fe 01       	movw	r30, r28
    155a:	ef 55       	subi	r30, 0x5F	; 95
    155c:	ff 4f       	sbci	r31, 0xFF	; 255
    155e:	01 90       	ld	r0, Z+
    1560:	0d 92       	st	X+, r0
    1562:	8a 95       	dec	r24
    1564:	e1 f7       	brne	.-8      	; 0x155e <evalX_k+0x2ac>
    1566:	8d b7       	in	r24, 0x3d	; 61
    1568:	9e b7       	in	r25, 0x3e	; 62
    156a:	80 97       	sbiw	r24, 0x20	; 32
    156c:	0f b6       	in	r0, 0x3f	; 63
    156e:	f8 94       	cli
    1570:	9e bf       	out	0x3e, r25	; 62
    1572:	0f be       	out	0x3f, r0	; 63
    1574:	8d bf       	out	0x3d, r24	; 61
    1576:	ad b7       	in	r26, 0x3d	; 61
    1578:	be b7       	in	r27, 0x3e	; 62
    157a:	11 96       	adiw	r26, 0x01	; 1
    157c:	80 e2       	ldi	r24, 0x20	; 32
    157e:	fe 01       	movw	r30, r28
    1580:	ef 5b       	subi	r30, 0xBF	; 191
    1582:	ff 4f       	sbci	r31, 0xFF	; 255
    1584:	01 90       	ld	r0, Z+
    1586:	0d 92       	st	X+, r0
    1588:	8a 95       	dec	r24
    158a:	e1 f7       	brne	.-8      	; 0x1584 <evalX_k+0x2d2>
    158c:	c3 01       	movw	r24, r6
    158e:	0e 94 f1 05 	call	0xbe2	; 0xbe2 <combine_final>
    1592:	0f b6       	in	r0, 0x3f	; 63
    1594:	f8 94       	cli
    1596:	de bf       	out	0x3e, r29	; 62
    1598:	0f be       	out	0x3f, r0	; 63
    159a:	cd bf       	out	0x3d, r28	; 61
    159c:	c3 01       	movw	r24, r6
    159e:	c0 53       	subi	r28, 0x30	; 48
    15a0:	df 4f       	sbci	r29, 0xFF	; 255
    15a2:	0f b6       	in	r0, 0x3f	; 63
    15a4:	f8 94       	cli
    15a6:	de bf       	out	0x3e, r29	; 62
    15a8:	0f be       	out	0x3f, r0	; 63
    15aa:	cd bf       	out	0x3d, r28	; 61
    15ac:	df 91       	pop	r29
    15ae:	cf 91       	pop	r28
    15b0:	1f 91       	pop	r17
    15b2:	0f 91       	pop	r16
    15b4:	ff 90       	pop	r15
    15b6:	ef 90       	pop	r14
    15b8:	df 90       	pop	r13
    15ba:	cf 90       	pop	r12
    15bc:	bf 90       	pop	r11
    15be:	af 90       	pop	r10
    15c0:	9f 90       	pop	r9
    15c2:	8f 90       	pop	r8
    15c4:	7f 90       	pop	r7
    15c6:	6f 90       	pop	r6
    15c8:	08 95       	ret

000015ca <ledsetup>:
    15ca:	24 9a       	sbi	0x04, 4	; 4
    15cc:	08 95       	ret

000015ce <displayStrand>:
    15ce:	f8 94       	cli
    15d0:	e6 e3       	ldi	r30, 0x36	; 54
    15d2:	f1 e0       	ldi	r31, 0x01	; 1
    15d4:	6e e7       	ldi	r22, 0x7E	; 126
    15d6:	71 e0       	ldi	r23, 0x01	; 1
    15d8:	48 e0       	ldi	r20, 0x08	; 8
    15da:	df 01       	movw	r26, r30
    15dc:	12 97       	sbiw	r26, 0x02	; 2
    15de:	9c 91       	ld	r25, X
    15e0:	11 96       	adiw	r26, 0x01	; 1
    15e2:	3c 91       	ld	r19, X
    15e4:	80 81       	ld	r24, Z
    15e6:	24 2f       	mov	r18, r20
    15e8:	33 23       	and	r19, r19
    15ea:	b4 f4       	brge	.+44     	; 0x1618 <displayStrand+0x4a>
    15ec:	2c 9a       	sbi	0x05, 4	; 5
	...
    1606:	2c 98       	cbi	0x05, 4	; 5
	...
    1614:	00 00       	nop
    1616:	12 c0       	rjmp	.+36     	; 0x163c <displayStrand+0x6e>
    1618:	2c 9a       	sbi	0x05, 4	; 5
	...
    1622:	2c 98       	cbi	0x05, 4	; 5
	...
    163c:	33 0f       	add	r19, r19
    163e:	21 50       	subi	r18, 0x01	; 1
    1640:	99 f6       	brne	.-90     	; 0x15e8 <displayStrand+0x1a>
    1642:	24 2f       	mov	r18, r20
    1644:	99 23       	and	r25, r25
    1646:	b4 f4       	brge	.+44     	; 0x1674 <displayStrand+0xa6>
    1648:	2c 9a       	sbi	0x05, 4	; 5
	...
    1662:	2c 98       	cbi	0x05, 4	; 5
	...
    1670:	00 00       	nop
    1672:	12 c0       	rjmp	.+36     	; 0x1698 <displayStrand+0xca>
    1674:	2c 9a       	sbi	0x05, 4	; 5
	...
    167e:	2c 98       	cbi	0x05, 4	; 5
	...
    1698:	99 0f       	add	r25, r25
    169a:	21 50       	subi	r18, 0x01	; 1
    169c:	99 f6       	brne	.-90     	; 0x1644 <displayStrand+0x76>
    169e:	94 2f       	mov	r25, r20
    16a0:	88 23       	and	r24, r24
    16a2:	b4 f4       	brge	.+44     	; 0x16d0 <displayStrand+0x102>
    16a4:	2c 9a       	sbi	0x05, 4	; 5
	...
    16be:	2c 98       	cbi	0x05, 4	; 5
	...
    16cc:	00 00       	nop
    16ce:	12 c0       	rjmp	.+36     	; 0x16f4 <displayStrand+0x126>
    16d0:	2c 9a       	sbi	0x05, 4	; 5
	...
    16da:	2c 98       	cbi	0x05, 4	; 5
	...
    16f4:	88 0f       	add	r24, r24
    16f6:	91 50       	subi	r25, 0x01	; 1
    16f8:	99 f6       	brne	.-90     	; 0x16a0 <displayStrand+0xd2>
    16fa:	33 96       	adiw	r30, 0x03	; 3
    16fc:	e6 17       	cp	r30, r22
    16fe:	f7 07       	cpc	r31, r23
    1700:	09 f0       	breq	.+2      	; 0x1704 <displayStrand+0x136>
    1702:	6b cf       	rjmp	.-298    	; 0x15da <displayStrand+0xc>
    1704:	78 94       	sei
    1706:	80 e3       	ldi	r24, 0x30	; 48
    1708:	8a 95       	dec	r24
    170a:	f1 f7       	brne	.-4      	; 0x1708 <displayStrand+0x13a>
    170c:	08 95       	ret

0000170e <setStrand>:
    170e:	e6 e3       	ldi	r30, 0x36	; 54
    1710:	f1 e0       	ldi	r31, 0x01	; 1
    1712:	2e e7       	ldi	r18, 0x7E	; 126
    1714:	31 e0       	ldi	r19, 0x01	; 1
    1716:	df 01       	movw	r26, r30
    1718:	12 97       	sbiw	r26, 0x02	; 2
    171a:	6c 93       	st	X, r22
    171c:	11 96       	adiw	r26, 0x01	; 1
    171e:	7c 93       	st	X, r23
    1720:	80 83       	st	Z, r24
    1722:	33 96       	adiw	r30, 0x03	; 3
    1724:	e2 17       	cp	r30, r18
    1726:	f3 07       	cpc	r31, r19
    1728:	b1 f7       	brne	.-20     	; 0x1716 <setStrand+0x8>
    172a:	08 95       	ret

0000172c <Map7Linear>:

void Map7Linear( int array[]) //adjust strands brightness according to 7 element array using linear interpolation.7
{
    172c:	2f 92       	push	r2
    172e:	3f 92       	push	r3
    1730:	4f 92       	push	r4
    1732:	5f 92       	push	r5
    1734:	6f 92       	push	r6
    1736:	7f 92       	push	r7
    1738:	8f 92       	push	r8
    173a:	9f 92       	push	r9
    173c:	af 92       	push	r10
    173e:	bf 92       	push	r11
    1740:	cf 92       	push	r12
    1742:	df 92       	push	r13
    1744:	ef 92       	push	r14
    1746:	ff 92       	push	r15
    1748:	0f 93       	push	r16
    174a:	1f 93       	push	r17
    174c:	cf 93       	push	r28
    174e:	df 93       	push	r29
    1750:	00 d0       	rcall	.+0      	; 0x1752 <Map7Linear+0x26>
    1752:	00 d0       	rcall	.+0      	; 0x1754 <Map7Linear+0x28>
    1754:	cd b7       	in	r28, 0x3d	; 61
    1756:	de b7       	in	r29, 0x3e	; 62
    1758:	9a 83       	std	Y+2, r25	; 0x02
    175a:	89 83       	std	Y+1, r24	; 0x01
    175c:	0f 2e       	mov	r0, r31
    175e:	f4 e3       	ldi	r31, 0x34	; 52
    1760:	2f 2e       	mov	r2, r31
    1762:	f1 e0       	ldi	r31, 0x01	; 1
    1764:	3f 2e       	mov	r3, r31
    1766:	f0 2d       	mov	r31, r0
    1768:	4c 01       	movw	r8, r24
    176a:	68 94       	set
    176c:	aa 24       	eor	r10, r10
    176e:	a2 f8       	bld	r10, 2
    1770:	b1 2c       	mov	r11, r1
    1772:	64 c0       	rjmp	.+200    	; 0x183c <Map7Linear+0x110>
	int i,j;
	for(i = 0; i < 6; i++)//for each 
	{
		for(j = 0; j < 4; j++)//for each
		{
			STRAND[i*4 + j].r = array[i]*((float)(4-j)/4.0) + array[i+1]*((float)(j)/4.0);
    1774:	f4 01       	movw	r30, r8
    1776:	60 81       	ld	r22, Z
    1778:	71 81       	ldd	r23, Z+1	; 0x01
    177a:	07 2e       	mov	r0, r23
    177c:	00 0c       	add	r0, r0
    177e:	88 0b       	sbc	r24, r24
    1780:	99 0b       	sbc	r25, r25
    1782:	0e 94 a0 0e 	call	0x1d40	; 0x1d40 <__floatsisf>
    1786:	6b 01       	movw	r12, r22
    1788:	7c 01       	movw	r14, r24
    178a:	b5 01       	movw	r22, r10
    178c:	2b 81       	ldd	r18, Y+3	; 0x03
    178e:	3c 81       	ldd	r19, Y+4	; 0x04
    1790:	62 1b       	sub	r22, r18
    1792:	73 0b       	sbc	r23, r19
    1794:	07 2e       	mov	r0, r23
    1796:	00 0c       	add	r0, r0
    1798:	88 0b       	sbc	r24, r24
    179a:	99 0b       	sbc	r25, r25
    179c:	0e 94 a0 0e 	call	0x1d40	; 0x1d40 <__floatsisf>
    17a0:	20 e0       	ldi	r18, 0x00	; 0
    17a2:	30 e0       	ldi	r19, 0x00	; 0
    17a4:	40 e8       	ldi	r20, 0x80	; 128
    17a6:	5e e3       	ldi	r21, 0x3E	; 62
    17a8:	0e 94 e4 0f 	call	0x1fc8	; 0x1fc8 <__mulsf3>
    17ac:	9b 01       	movw	r18, r22
    17ae:	ac 01       	movw	r20, r24
    17b0:	c7 01       	movw	r24, r14
    17b2:	b6 01       	movw	r22, r12
    17b4:	0e 94 e4 0f 	call	0x1fc8	; 0x1fc8 <__mulsf3>
    17b8:	6b 01       	movw	r12, r22
    17ba:	7c 01       	movw	r14, r24
    17bc:	f4 01       	movw	r30, r8
    17be:	62 81       	ldd	r22, Z+2	; 0x02
    17c0:	73 81       	ldd	r23, Z+3	; 0x03
    17c2:	07 2e       	mov	r0, r23
    17c4:	00 0c       	add	r0, r0
    17c6:	88 0b       	sbc	r24, r24
    17c8:	99 0b       	sbc	r25, r25
    17ca:	0e 94 a0 0e 	call	0x1d40	; 0x1d40 <__floatsisf>
    17ce:	2b 01       	movw	r4, r22
    17d0:	3c 01       	movw	r6, r24
    17d2:	2b 81       	ldd	r18, Y+3	; 0x03
    17d4:	3c 81       	ldd	r19, Y+4	; 0x04
    17d6:	b9 01       	movw	r22, r18
    17d8:	33 0f       	add	r19, r19
    17da:	88 0b       	sbc	r24, r24
    17dc:	99 0b       	sbc	r25, r25
    17de:	0e 94 a0 0e 	call	0x1d40	; 0x1d40 <__floatsisf>
    17e2:	20 e0       	ldi	r18, 0x00	; 0
    17e4:	30 e0       	ldi	r19, 0x00	; 0
    17e6:	40 e8       	ldi	r20, 0x80	; 128
    17e8:	5e e3       	ldi	r21, 0x3E	; 62
    17ea:	0e 94 e4 0f 	call	0x1fc8	; 0x1fc8 <__mulsf3>
    17ee:	9b 01       	movw	r18, r22
    17f0:	ac 01       	movw	r20, r24
    17f2:	c3 01       	movw	r24, r6
    17f4:	b2 01       	movw	r22, r4
    17f6:	0e 94 e4 0f 	call	0x1fc8	; 0x1fc8 <__mulsf3>
    17fa:	9b 01       	movw	r18, r22
    17fc:	ac 01       	movw	r20, r24
    17fe:	c7 01       	movw	r24, r14
    1800:	b6 01       	movw	r22, r12
    1802:	0e 94 80 0d 	call	0x1b00	; 0x1b00 <__addsf3>
    1806:	0e 94 6f 0e 	call	0x1cde	; 0x1cde <__fixunssfsi>
    180a:	f8 01       	movw	r30, r16
    180c:	60 83       	st	Z, r22
{

	int i,j;
	for(i = 0; i < 6; i++)//for each 
	{
		for(j = 0; j < 4; j++)//for each
    180e:	2b 81       	ldd	r18, Y+3	; 0x03
    1810:	3c 81       	ldd	r19, Y+4	; 0x04
    1812:	2f 5f       	subi	r18, 0xFF	; 255
    1814:	3f 4f       	sbci	r19, 0xFF	; 255
    1816:	3c 83       	std	Y+4, r19	; 0x04
    1818:	2b 83       	std	Y+3, r18	; 0x03
    181a:	0d 5f       	subi	r16, 0xFD	; 253
    181c:	1f 4f       	sbci	r17, 0xFF	; 255
    181e:	24 30       	cpi	r18, 0x04	; 4
    1820:	31 05       	cpc	r19, r1
    1822:	09 f0       	breq	.+2      	; 0x1826 <Map7Linear+0xfa>
    1824:	a7 cf       	rjmp	.-178    	; 0x1774 <Map7Linear+0x48>
    1826:	3c e0       	ldi	r19, 0x0C	; 12
    1828:	23 0e       	add	r2, r19
    182a:	31 1c       	adc	r3, r1
    182c:	82 e0       	ldi	r24, 0x02	; 2
    182e:	88 0e       	add	r8, r24
    1830:	91 1c       	adc	r9, r1

void Map7Linear( int array[]) //adjust strands brightness according to 7 element array using linear interpolation.7
{

	int i,j;
	for(i = 0; i < 6; i++)//for each 
    1832:	9c e7       	ldi	r25, 0x7C	; 124
    1834:	29 16       	cp	r2, r25
    1836:	91 e0       	ldi	r25, 0x01	; 1
    1838:	39 06       	cpc	r3, r25
    183a:	31 f0       	breq	.+12     	; 0x1848 <Map7Linear+0x11c>


}

void Map7Linear( int array[]) //adjust strands brightness according to 7 element array using linear interpolation.7
{
    183c:	81 01       	movw	r16, r2
    183e:	e1 2c       	mov	r14, r1
    1840:	f1 2c       	mov	r15, r1
    1842:	fc 82       	std	Y+4, r15	; 0x04
    1844:	eb 82       	std	Y+3, r14	; 0x03
    1846:	96 cf       	rjmp	.-212    	; 0x1774 <Map7Linear+0x48>
			STRAND[i*4 + j].r = array[i]*((float)(4-j)/4.0) + array[i+1]*((float)(j)/4.0);
		}

	}

	STRAND[23].r = array[6];
    1848:	e9 81       	ldd	r30, Y+1	; 0x01
    184a:	fa 81       	ldd	r31, Y+2	; 0x02
    184c:	84 85       	ldd	r24, Z+12	; 0x0c
    184e:	80 93 79 01 	sts	0x0179, r24	; 0x800179 <__data_end+0x45>
	
}
    1852:	0f 90       	pop	r0
    1854:	0f 90       	pop	r0
    1856:	0f 90       	pop	r0
    1858:	0f 90       	pop	r0
    185a:	df 91       	pop	r29
    185c:	cf 91       	pop	r28
    185e:	1f 91       	pop	r17
    1860:	0f 91       	pop	r16
    1862:	ff 90       	pop	r15
    1864:	ef 90       	pop	r14
    1866:	df 90       	pop	r13
    1868:	cf 90       	pop	r12
    186a:	bf 90       	pop	r11
    186c:	af 90       	pop	r10
    186e:	9f 90       	pop	r9
    1870:	8f 90       	pop	r8
    1872:	7f 90       	pop	r7
    1874:	6f 90       	pop	r6
    1876:	5f 90       	pop	r5
    1878:	4f 90       	pop	r4
    187a:	3f 90       	pop	r3
    187c:	2f 90       	pop	r2
    187e:	08 95       	ret

00001880 <Map7FFT>:

void Map7FFT(float y[])
{
    1880:	8f 92       	push	r8
    1882:	9f 92       	push	r9
    1884:	af 92       	push	r10
    1886:	bf 92       	push	r11
    1888:	cf 92       	push	r12
    188a:	df 92       	push	r13
    188c:	ef 92       	push	r14
    188e:	ff 92       	push	r15
    1890:	0f 93       	push	r16
    1892:	1f 93       	push	r17
    1894:	cf 93       	push	r28
    1896:	df 93       	push	r29
    1898:	cd b7       	in	r28, 0x3d	; 61
    189a:	de b7       	in	r29, 0x3e	; 62
    189c:	c0 54       	subi	r28, 0x40	; 64
    189e:	d1 09       	sbc	r29, r1
    18a0:	0f b6       	in	r0, 0x3f	; 63
    18a2:	f8 94       	cli
    18a4:	de bf       	out	0x3e, r29	; 62
    18a6:	0f be       	out	0x3f, r0	; 63
    18a8:	cd bf       	out	0x3d, r28	; 61
	X_k transformedVector = evalX_k(y);
    18aa:	bc 01       	movw	r22, r24
    18ac:	ce 01       	movw	r24, r28
    18ae:	01 96       	adiw	r24, 0x01	; 1
    18b0:	0e 94 59 09 	call	0x12b2	; 0x12b2 <evalX_k>
    18b4:	0f 2e       	mov	r0, r31
    18b6:	f4 e3       	ldi	r31, 0x34	; 52
    18b8:	af 2e       	mov	r10, r31
    18ba:	f1 e0       	ldi	r31, 0x01	; 1
    18bc:	bf 2e       	mov	r11, r31
    18be:	f0 2d       	mov	r31, r0

	const float Filter_Factor = 50;

	float temp;
	int i = 0;
	for(i = 0; i < 24; i++)
    18c0:	00 e0       	ldi	r16, 0x00	; 0
    18c2:	10 e0       	ldi	r17, 0x00	; 0
	{
		temp = eval_Func_8(transformedVector, i*(7.0/24.0));
    18c4:	68 94       	set
    18c6:	99 24       	eor	r9, r9
    18c8:	96 f8       	bld	r9, 6
		if(temp > 0)
		{
			if(temp < 255)
				STRAND[i].r = (int)temp;
			else
				STRAND[i].r = 255;
    18ca:	88 24       	eor	r8, r8
    18cc:	8a 94       	dec	r8

	float temp;
	int i = 0;
	for(i = 0; i < 24; i++)
	{
		temp = eval_Func_8(transformedVector, i*(7.0/24.0));
    18ce:	b8 01       	movw	r22, r16
    18d0:	01 2e       	mov	r0, r17
    18d2:	00 0c       	add	r0, r0
    18d4:	88 0b       	sbc	r24, r24
    18d6:	99 0b       	sbc	r25, r25
    18d8:	0e 94 a0 0e 	call	0x1d40	; 0x1d40 <__floatsisf>
    18dc:	25 e5       	ldi	r18, 0x55	; 85
    18de:	35 e5       	ldi	r19, 0x55	; 85
    18e0:	45 e9       	ldi	r20, 0x95	; 149
    18e2:	5e e3       	ldi	r21, 0x3E	; 62
    18e4:	0e 94 e4 0f 	call	0x1fc8	; 0x1fc8 <__mulsf3>
    18e8:	9f 93       	push	r25
    18ea:	8f 93       	push	r24
    18ec:	7f 93       	push	r23
    18ee:	6f 93       	push	r22
    18f0:	2d b7       	in	r18, 0x3d	; 61
    18f2:	3e b7       	in	r19, 0x3e	; 62
    18f4:	20 54       	subi	r18, 0x40	; 64
    18f6:	31 09       	sbc	r19, r1
    18f8:	0f b6       	in	r0, 0x3f	; 63
    18fa:	f8 94       	cli
    18fc:	3e bf       	out	0x3e, r19	; 62
    18fe:	0f be       	out	0x3f, r0	; 63
    1900:	2d bf       	out	0x3d, r18	; 61
    1902:	ad b7       	in	r26, 0x3d	; 61
    1904:	be b7       	in	r27, 0x3e	; 62
    1906:	11 96       	adiw	r26, 0x01	; 1
    1908:	fe 01       	movw	r30, r28
    190a:	31 96       	adiw	r30, 0x01	; 1
    190c:	89 2d       	mov	r24, r9
    190e:	01 90       	ld	r0, Z+
    1910:	0d 92       	st	X+, r0
    1912:	8a 95       	dec	r24
    1914:	e1 f7       	brne	.-8      	; 0x190e <Map7FFT+0x8e>
    1916:	0e 94 9f 08 	call	0x113e	; 0x113e <eval_Func_8>
    191a:	0f b6       	in	r0, 0x3f	; 63
    191c:	f8 94       	cli
    191e:	de bf       	out	0x3e, r29	; 62
    1920:	0f be       	out	0x3f, r0	; 63
    1922:	cd bf       	out	0x3d, r28	; 61
    1924:	6b 01       	movw	r12, r22
    1926:	7c 01       	movw	r14, r24
		if(temp < Filter_Factor)
		{
			//temp = temp * pow(temp/Filter_Factor, 2);
		}

		if(temp > 0)
    1928:	20 e0       	ldi	r18, 0x00	; 0
    192a:	30 e0       	ldi	r19, 0x00	; 0
    192c:	a9 01       	movw	r20, r18
    192e:	0e 94 8f 0f 	call	0x1f1e	; 0x1f1e <__gesf2>
    1932:	18 16       	cp	r1, r24
    1934:	a4 f4       	brge	.+40     	; 0x195e <Map7FFT+0xde>
		{
			if(temp < 255)
    1936:	20 e0       	ldi	r18, 0x00	; 0
    1938:	30 e0       	ldi	r19, 0x00	; 0
    193a:	4f e7       	ldi	r20, 0x7F	; 127
    193c:	53 e4       	ldi	r21, 0x43	; 67
    193e:	c7 01       	movw	r24, r14
    1940:	b6 01       	movw	r22, r12
    1942:	0e 94 ec 0d 	call	0x1bd8	; 0x1bd8 <__cmpsf2>
    1946:	88 23       	and	r24, r24
    1948:	3c f4       	brge	.+14     	; 0x1958 <Map7FFT+0xd8>
				STRAND[i].r = (int)temp;
    194a:	c7 01       	movw	r24, r14
    194c:	b6 01       	movw	r22, r12
    194e:	0e 94 68 0e 	call	0x1cd0	; 0x1cd0 <__fixsfsi>
    1952:	f5 01       	movw	r30, r10
    1954:	60 83       	st	Z, r22
    1956:	05 c0       	rjmp	.+10     	; 0x1962 <Map7FFT+0xe2>
			else
				STRAND[i].r = 255;
    1958:	f5 01       	movw	r30, r10
    195a:	80 82       	st	Z, r8
    195c:	02 c0       	rjmp	.+4      	; 0x1962 <Map7FFT+0xe2>
		}
		else
			STRAND[i].r = 0;
    195e:	f5 01       	movw	r30, r10
    1960:	10 82       	st	Z, r1

	const float Filter_Factor = 50;

	float temp;
	int i = 0;
	for(i = 0; i < 24; i++)
    1962:	0f 5f       	subi	r16, 0xFF	; 255
    1964:	1f 4f       	sbci	r17, 0xFF	; 255
    1966:	f3 e0       	ldi	r31, 0x03	; 3
    1968:	af 0e       	add	r10, r31
    196a:	b1 1c       	adc	r11, r1
    196c:	08 31       	cpi	r16, 0x18	; 24
    196e:	11 05       	cpc	r17, r1
    1970:	09 f0       	breq	.+2      	; 0x1974 <Map7FFT+0xf4>
    1972:	ad cf       	rjmp	.-166    	; 0x18ce <Map7FFT+0x4e>
		}
		else
			STRAND[i].r = 0;
	}

    1974:	c0 5c       	subi	r28, 0xC0	; 192
    1976:	df 4f       	sbci	r29, 0xFF	; 255
    1978:	0f b6       	in	r0, 0x3f	; 63
    197a:	f8 94       	cli
    197c:	de bf       	out	0x3e, r29	; 62
    197e:	0f be       	out	0x3f, r0	; 63
    1980:	cd bf       	out	0x3d, r28	; 61
    1982:	df 91       	pop	r29
    1984:	cf 91       	pop	r28
    1986:	1f 91       	pop	r17
    1988:	0f 91       	pop	r16
    198a:	ff 90       	pop	r15
    198c:	ef 90       	pop	r14
    198e:	df 90       	pop	r13
    1990:	cf 90       	pop	r12
    1992:	bf 90       	pop	r11
    1994:	af 90       	pop	r10
    1996:	9f 90       	pop	r9
    1998:	8f 90       	pop	r8
    199a:	08 95       	ret

0000199c <main>:

#include "NeoPixel.h"
#include <stdlib.h>

int main()
{
    199c:	cf 93       	push	r28
    199e:	df 93       	push	r29
    19a0:	cd b7       	in	r28, 0x3d	; 61
    19a2:	de b7       	in	r29, 0x3e	; 62
    19a4:	c0 59       	subi	r28, 0x90	; 144
    19a6:	d1 09       	sbc	r29, r1
    19a8:	0f b6       	in	r0, 0x3f	; 63
    19aa:	f8 94       	cli
    19ac:	de bf       	out	0x3e, r29	; 62
    19ae:	0f be       	out	0x3f, r0	; 63
    19b0:	cd bf       	out	0x3d, r28	; 61
	pixel.g = 0;
	pixel.b = 0;

	

	ledsetup();
    19b2:	0e 94 e5 0a 	call	0x15ca	; 0x15ca <ledsetup>
	int seven[8] = {0,0,80,0,0,80,0,0};//technically 8
    19b6:	80 e1       	ldi	r24, 0x10	; 16
    19b8:	e4 e0       	ldi	r30, 0x04	; 4
    19ba:	f1 e0       	ldi	r31, 0x01	; 1
    19bc:	de 01       	movw	r26, r28
    19be:	11 96       	adiw	r26, 0x01	; 1
    19c0:	01 90       	ld	r0, Z+
    19c2:	0d 92       	st	X+, r0
    19c4:	8a 95       	dec	r24
    19c6:	e1 f7       	brne	.-8      	; 0x19c0 <main+0x24>
	float seven_F[8] = {0,0,0,0,255,0,0,0};//technically 8
    19c8:	8e 01       	movw	r16, r28
    19ca:	0f 5e       	subi	r16, 0xEF	; 239
    19cc:	1f 4f       	sbci	r17, 0xFF	; 255
    19ce:	80 e2       	ldi	r24, 0x20	; 32
    19d0:	f8 01       	movw	r30, r16
    19d2:	11 92       	st	Z+, r1
    19d4:	8a 95       	dec	r24
    19d6:	e9 f7       	brne	.-6      	; 0x19d2 <main+0x36>
    19d8:	80 e0       	ldi	r24, 0x00	; 0
    19da:	90 e0       	ldi	r25, 0x00	; 0
    19dc:	af e7       	ldi	r26, 0x7F	; 127
    19de:	b3 e4       	ldi	r27, 0x43	; 67
    19e0:	89 a3       	std	Y+33, r24	; 0x21
    19e2:	9a a3       	std	Y+34, r25	; 0x22
    19e4:	ab a3       	std	Y+35, r26	; 0x23
    19e6:	bc a3       	std	Y+36, r27	; 0x24
	setStrand(pixel);
    19e8:	6a e0       	ldi	r22, 0x0A	; 10
    19ea:	70 e0       	ldi	r23, 0x00	; 0
    19ec:	80 e0       	ldi	r24, 0x00	; 0
    19ee:	0e 94 87 0b 	call	0x170e	; 0x170e <setStrand>
	Map7FFT(seven_F);
    19f2:	c8 01       	movw	r24, r16
    19f4:	0e 94 40 0c 	call	0x1880	; 0x1880 <Map7FFT>

	unsigned int test = 0x05;

	

	seven[0] = reverse(test);
    19f8:	85 e0       	ldi	r24, 0x05	; 5
    19fa:	90 e0       	ldi	r25, 0x00	; 0
    19fc:	0e 94 be 01 	call	0x37c	; 0x37c <reverse>
    1a00:	9a 83       	std	Y+2, r25	; 0x02
    1a02:	89 83       	std	Y+1, r24	; 0x01
	//Map7Linear(seven);
	
	vector_2 zs[4];

	float z[8] = {0,1,2,3,4,5,6,7};
    1a04:	80 e2       	ldi	r24, 0x20	; 32
    1a06:	e4 e1       	ldi	r30, 0x14	; 20
    1a08:	f1 e0       	ldi	r31, 0x01	; 1
    1a0a:	de 01       	movw	r26, r28
    1a0c:	af 58       	subi	r26, 0x8F	; 143
    1a0e:	bf 4f       	sbci	r27, 0xFF	; 255
    1a10:	01 90       	ld	r0, Z+
    1a12:	0d 92       	st	X+, r0
    1a14:	8a 95       	dec	r24
    1a16:	e1 f7       	brne	.-8      	; 0x1a10 <main+0x74>
	unsigned int Size = 8;
	populate(zs, Size, z);
    1a18:	ae 01       	movw	r20, r28
    1a1a:	4f 58       	subi	r20, 0x8F	; 143
    1a1c:	5f 4f       	sbci	r21, 0xFF	; 255
    1a1e:	68 e0       	ldi	r22, 0x08	; 8
    1a20:	70 e0       	ldi	r23, 0x00	; 0
    1a22:	ce 01       	movw	r24, r28
    1a24:	c1 96       	adiw	r24, 0x31	; 49
    1a26:	0e 94 dd 01 	call	0x3ba	; 0x3ba <populate>

	unsigned int k = 1;
	k = reverse(k);
    1a2a:	81 e0       	ldi	r24, 0x01	; 1
    1a2c:	90 e0       	ldi	r25, 0x00	; 0
    1a2e:	0e 94 be 01 	call	0x37c	; 0x37c <reverse>
	z[0] = k;
    1a32:	bc 01       	movw	r22, r24
    1a34:	80 e0       	ldi	r24, 0x00	; 0
    1a36:	90 e0       	ldi	r25, 0x00	; 0
    1a38:	0e 94 9e 0e 	call	0x1d3c	; 0x1d3c <__floatunsisf>
    1a3c:	e5 96       	adiw	r28, 0x35	; 53
    1a3e:	6c af       	std	Y+60, r22	; 0x3c
    1a40:	7d af       	std	Y+61, r23	; 0x3d
    1a42:	8e af       	std	Y+62, r24	; 0x3e
    1a44:	9f af       	std	Y+63, r25	; 0x3f
    1a46:	e5 97       	sbiw	r28, 0x35	; 53
	displayStrand();
    1a48:	0e 94 e7 0a 	call	0x15ce	; 0x15ce <displayStrand>
    1a4c:	4e 01       	movw	r8, r28
    1a4e:	fd e2       	ldi	r31, 0x2D	; 45
    1a50:	8f 0e       	add	r8, r31
    1a52:	91 1c       	adc	r9, r1
		int k = 0;
		int temp;
		
		for(k = 0; k < 7; k++)
		{
			temp = rand()%50 + 0;
    1a54:	0f 2e       	mov	r0, r31
    1a56:	f2 e3       	ldi	r31, 0x32	; 50
    1a58:	af 2e       	mov	r10, r31
    1a5a:	b1 2c       	mov	r11, r1
    1a5c:	f0 2d       	mov	r31, r0
    1a5e:	8e 01       	movw	r16, r28
    1a60:	0f 5e       	subi	r16, 0xEF	; 239
    1a62:	1f 4f       	sbci	r17, 0xFF	; 255
    1a64:	ce 01       	movw	r24, r28
    1a66:	01 96       	adiw	r24, 0x01	; 1
    1a68:	6c 01       	movw	r12, r24
    1a6a:	0e 94 16 11 	call	0x222c	; 0x222c <rand>
    1a6e:	b5 01       	movw	r22, r10
    1a70:	0e 94 a2 10 	call	0x2144	; 0x2144 <__divmodhi4>
    1a74:	7c 01       	movw	r14, r24
			seven_F[k] = (float)temp;
    1a76:	bc 01       	movw	r22, r24
    1a78:	99 0f       	add	r25, r25
    1a7a:	88 0b       	sbc	r24, r24
    1a7c:	99 0b       	sbc	r25, r25
    1a7e:	0e 94 a0 0e 	call	0x1d40	; 0x1d40 <__floatsisf>
    1a82:	f8 01       	movw	r30, r16
    1a84:	61 93       	st	Z+, r22
    1a86:	71 93       	st	Z+, r23
    1a88:	81 93       	st	Z+, r24
    1a8a:	91 93       	st	Z+, r25
    1a8c:	8f 01       	movw	r16, r30
			seven[k] = temp;
    1a8e:	f6 01       	movw	r30, r12
    1a90:	e1 92       	st	Z+, r14
    1a92:	f1 92       	st	Z+, r15
    1a94:	6f 01       	movw	r12, r30
		//colorwipe();

		int k = 0;
		int temp;
		
		for(k = 0; k < 7; k++)
    1a96:	08 15       	cp	r16, r8
    1a98:	19 05       	cpc	r17, r9
    1a9a:	39 f7       	brne	.-50     	; 0x1a6a <main+0xce>
			seven_F[k] = (float)temp;
			seven[k] = temp;
		}
		

		seven_F[7] = (seven_F[0] + seven_F[6])/2; //interpolating an 8th position since the MSGEQ7 only gives 7
    1a9c:	29 a5       	ldd	r18, Y+41	; 0x29
    1a9e:	3a a5       	ldd	r19, Y+42	; 0x2a
    1aa0:	4b a5       	ldd	r20, Y+43	; 0x2b
    1aa2:	5c a5       	ldd	r21, Y+44	; 0x2c
    1aa4:	69 89       	ldd	r22, Y+17	; 0x11
    1aa6:	7a 89       	ldd	r23, Y+18	; 0x12
    1aa8:	8b 89       	ldd	r24, Y+19	; 0x13
    1aaa:	9c 89       	ldd	r25, Y+20	; 0x14
    1aac:	0e 94 80 0d 	call	0x1b00	; 0x1b00 <__addsf3>
    1ab0:	20 e0       	ldi	r18, 0x00	; 0
    1ab2:	30 e0       	ldi	r19, 0x00	; 0
    1ab4:	40 e0       	ldi	r20, 0x00	; 0
    1ab6:	5f e3       	ldi	r21, 0x3F	; 63
    1ab8:	0e 94 e4 0f 	call	0x1fc8	; 0x1fc8 <__mulsf3>
    1abc:	6d a7       	std	Y+45, r22	; 0x2d
    1abe:	7e a7       	std	Y+46, r23	; 0x2e
    1ac0:	8f a7       	std	Y+47, r24	; 0x2f
    1ac2:	98 ab       	std	Y+48, r25	; 0x30
		seven[7] = (seven[0] + seven[6])/2;
    1ac4:	29 81       	ldd	r18, Y+1	; 0x01
    1ac6:	3a 81       	ldd	r19, Y+2	; 0x02
    1ac8:	8d 85       	ldd	r24, Y+13	; 0x0d
    1aca:	9e 85       	ldd	r25, Y+14	; 0x0e
    1acc:	82 0f       	add	r24, r18
    1ace:	93 1f       	adc	r25, r19
    1ad0:	99 23       	and	r25, r25
    1ad2:	0c f4       	brge	.+2      	; 0x1ad6 <main+0x13a>
    1ad4:	01 96       	adiw	r24, 0x01	; 1
    1ad6:	95 95       	asr	r25
    1ad8:	87 95       	ror	r24
    1ada:	98 8b       	std	Y+16, r25	; 0x10
    1adc:	8f 87       	std	Y+15, r24	; 0x0f
	#else
		//round up by default
		__ticks_dc = (uint32_t)(ceil(fabs(__tmp)));
	#endif

	__builtin_avr_delay_cycles(__ticks_dc);
    1ade:	ff ef       	ldi	r31, 0xFF	; 255
    1ae0:	24 e3       	ldi	r18, 0x34	; 52
    1ae2:	8c e0       	ldi	r24, 0x0C	; 12
    1ae4:	f1 50       	subi	r31, 0x01	; 1
    1ae6:	20 40       	sbci	r18, 0x00	; 0
    1ae8:	80 40       	sbci	r24, 0x00	; 0
    1aea:	e1 f7       	brne	.-8      	; 0x1ae4 <main+0x148>
    1aec:	00 c0       	rjmp	.+0      	; 0x1aee <main+0x152>
    1aee:	00 00       	nop
		
		_delay_ms(250);

		//Map7FFT(seven_F);
		Map7Linear(seven);
    1af0:	ce 01       	movw	r24, r28
    1af2:	01 96       	adiw	r24, 0x01	; 1
    1af4:	0e 94 96 0b 	call	0x172c	; 0x172c <Map7Linear>

		displayStrand();
    1af8:	0e 94 e7 0a 	call	0x15ce	; 0x15ce <displayStrand>
		counter++;
	}
    1afc:	b0 cf       	rjmp	.-160    	; 0x1a5e <main+0xc2>

00001afe <__subsf3>:
    1afe:	50 58       	subi	r21, 0x80	; 128

00001b00 <__addsf3>:
    1b00:	bb 27       	eor	r27, r27
    1b02:	aa 27       	eor	r26, r26
    1b04:	0e 94 97 0d 	call	0x1b2e	; 0x1b2e <__addsf3x>
    1b08:	0c 94 41 0f 	jmp	0x1e82	; 0x1e82 <__fp_round>
    1b0c:	0e 94 08 0f 	call	0x1e10	; 0x1e10 <__fp_pscA>
    1b10:	38 f0       	brcs	.+14     	; 0x1b20 <__addsf3+0x20>
    1b12:	0e 94 0f 0f 	call	0x1e1e	; 0x1e1e <__fp_pscB>
    1b16:	20 f0       	brcs	.+8      	; 0x1b20 <__addsf3+0x20>
    1b18:	39 f4       	brne	.+14     	; 0x1b28 <__addsf3+0x28>
    1b1a:	9f 3f       	cpi	r25, 0xFF	; 255
    1b1c:	19 f4       	brne	.+6      	; 0x1b24 <__addsf3+0x24>
    1b1e:	26 f4       	brtc	.+8      	; 0x1b28 <__addsf3+0x28>
    1b20:	0c 94 05 0f 	jmp	0x1e0a	; 0x1e0a <__fp_nan>
    1b24:	0e f4       	brtc	.+2      	; 0x1b28 <__addsf3+0x28>
    1b26:	e0 95       	com	r30
    1b28:	e7 fb       	bst	r30, 7
    1b2a:	0c 94 ff 0e 	jmp	0x1dfe	; 0x1dfe <__fp_inf>

00001b2e <__addsf3x>:
    1b2e:	e9 2f       	mov	r30, r25
    1b30:	0e 94 66 0f 	call	0x1ecc	; 0x1ecc <__fp_split3>
    1b34:	58 f3       	brcs	.-42     	; 0x1b0c <__addsf3+0xc>
    1b36:	ba 17       	cp	r27, r26
    1b38:	62 07       	cpc	r22, r18
    1b3a:	73 07       	cpc	r23, r19
    1b3c:	84 07       	cpc	r24, r20
    1b3e:	95 07       	cpc	r25, r21
    1b40:	20 f0       	brcs	.+8      	; 0x1b4a <__addsf3x+0x1c>
    1b42:	79 f4       	brne	.+30     	; 0x1b62 <__addsf3x+0x34>
    1b44:	a6 f5       	brtc	.+104    	; 0x1bae <__addsf3x+0x80>
    1b46:	0c 94 88 0f 	jmp	0x1f10	; 0x1f10 <__fp_zero>
    1b4a:	0e f4       	brtc	.+2      	; 0x1b4e <__addsf3x+0x20>
    1b4c:	e0 95       	com	r30
    1b4e:	0b 2e       	mov	r0, r27
    1b50:	ba 2f       	mov	r27, r26
    1b52:	a0 2d       	mov	r26, r0
    1b54:	0b 01       	movw	r0, r22
    1b56:	b9 01       	movw	r22, r18
    1b58:	90 01       	movw	r18, r0
    1b5a:	0c 01       	movw	r0, r24
    1b5c:	ca 01       	movw	r24, r20
    1b5e:	a0 01       	movw	r20, r0
    1b60:	11 24       	eor	r1, r1
    1b62:	ff 27       	eor	r31, r31
    1b64:	59 1b       	sub	r21, r25
    1b66:	99 f0       	breq	.+38     	; 0x1b8e <__addsf3x+0x60>
    1b68:	59 3f       	cpi	r21, 0xF9	; 249
    1b6a:	50 f4       	brcc	.+20     	; 0x1b80 <__addsf3x+0x52>
    1b6c:	50 3e       	cpi	r21, 0xE0	; 224
    1b6e:	68 f1       	brcs	.+90     	; 0x1bca <__addsf3x+0x9c>
    1b70:	1a 16       	cp	r1, r26
    1b72:	f0 40       	sbci	r31, 0x00	; 0
    1b74:	a2 2f       	mov	r26, r18
    1b76:	23 2f       	mov	r18, r19
    1b78:	34 2f       	mov	r19, r20
    1b7a:	44 27       	eor	r20, r20
    1b7c:	58 5f       	subi	r21, 0xF8	; 248
    1b7e:	f3 cf       	rjmp	.-26     	; 0x1b66 <__addsf3x+0x38>
    1b80:	46 95       	lsr	r20
    1b82:	37 95       	ror	r19
    1b84:	27 95       	ror	r18
    1b86:	a7 95       	ror	r26
    1b88:	f0 40       	sbci	r31, 0x00	; 0
    1b8a:	53 95       	inc	r21
    1b8c:	c9 f7       	brne	.-14     	; 0x1b80 <__addsf3x+0x52>
    1b8e:	7e f4       	brtc	.+30     	; 0x1bae <__addsf3x+0x80>
    1b90:	1f 16       	cp	r1, r31
    1b92:	ba 0b       	sbc	r27, r26
    1b94:	62 0b       	sbc	r22, r18
    1b96:	73 0b       	sbc	r23, r19
    1b98:	84 0b       	sbc	r24, r20
    1b9a:	ba f0       	brmi	.+46     	; 0x1bca <__addsf3x+0x9c>
    1b9c:	91 50       	subi	r25, 0x01	; 1
    1b9e:	a1 f0       	breq	.+40     	; 0x1bc8 <__addsf3x+0x9a>
    1ba0:	ff 0f       	add	r31, r31
    1ba2:	bb 1f       	adc	r27, r27
    1ba4:	66 1f       	adc	r22, r22
    1ba6:	77 1f       	adc	r23, r23
    1ba8:	88 1f       	adc	r24, r24
    1baa:	c2 f7       	brpl	.-16     	; 0x1b9c <__addsf3x+0x6e>
    1bac:	0e c0       	rjmp	.+28     	; 0x1bca <__addsf3x+0x9c>
    1bae:	ba 0f       	add	r27, r26
    1bb0:	62 1f       	adc	r22, r18
    1bb2:	73 1f       	adc	r23, r19
    1bb4:	84 1f       	adc	r24, r20
    1bb6:	48 f4       	brcc	.+18     	; 0x1bca <__addsf3x+0x9c>
    1bb8:	87 95       	ror	r24
    1bba:	77 95       	ror	r23
    1bbc:	67 95       	ror	r22
    1bbe:	b7 95       	ror	r27
    1bc0:	f7 95       	ror	r31
    1bc2:	9e 3f       	cpi	r25, 0xFE	; 254
    1bc4:	08 f0       	brcs	.+2      	; 0x1bc8 <__addsf3x+0x9a>
    1bc6:	b0 cf       	rjmp	.-160    	; 0x1b28 <__addsf3+0x28>
    1bc8:	93 95       	inc	r25
    1bca:	88 0f       	add	r24, r24
    1bcc:	08 f0       	brcs	.+2      	; 0x1bd0 <__addsf3x+0xa2>
    1bce:	99 27       	eor	r25, r25
    1bd0:	ee 0f       	add	r30, r30
    1bd2:	97 95       	ror	r25
    1bd4:	87 95       	ror	r24
    1bd6:	08 95       	ret

00001bd8 <__cmpsf2>:
    1bd8:	0e 94 db 0e 	call	0x1db6	; 0x1db6 <__fp_cmp>
    1bdc:	08 f4       	brcc	.+2      	; 0x1be0 <__cmpsf2+0x8>
    1bde:	81 e0       	ldi	r24, 0x01	; 1
    1be0:	08 95       	ret

00001be2 <cos>:
    1be2:	0e 94 18 0f 	call	0x1e30	; 0x1e30 <__fp_rempio2>
    1be6:	e3 95       	inc	r30
    1be8:	0c 94 52 0f 	jmp	0x1ea4	; 0x1ea4 <__fp_sinus>

00001bec <__divsf3>:
    1bec:	0e 94 0a 0e 	call	0x1c14	; 0x1c14 <__divsf3x>
    1bf0:	0c 94 41 0f 	jmp	0x1e82	; 0x1e82 <__fp_round>
    1bf4:	0e 94 0f 0f 	call	0x1e1e	; 0x1e1e <__fp_pscB>
    1bf8:	58 f0       	brcs	.+22     	; 0x1c10 <__divsf3+0x24>
    1bfa:	0e 94 08 0f 	call	0x1e10	; 0x1e10 <__fp_pscA>
    1bfe:	40 f0       	brcs	.+16     	; 0x1c10 <__divsf3+0x24>
    1c00:	29 f4       	brne	.+10     	; 0x1c0c <__divsf3+0x20>
    1c02:	5f 3f       	cpi	r21, 0xFF	; 255
    1c04:	29 f0       	breq	.+10     	; 0x1c10 <__divsf3+0x24>
    1c06:	0c 94 ff 0e 	jmp	0x1dfe	; 0x1dfe <__fp_inf>
    1c0a:	51 11       	cpse	r21, r1
    1c0c:	0c 94 89 0f 	jmp	0x1f12	; 0x1f12 <__fp_szero>
    1c10:	0c 94 05 0f 	jmp	0x1e0a	; 0x1e0a <__fp_nan>

00001c14 <__divsf3x>:
    1c14:	0e 94 66 0f 	call	0x1ecc	; 0x1ecc <__fp_split3>
    1c18:	68 f3       	brcs	.-38     	; 0x1bf4 <__divsf3+0x8>

00001c1a <__divsf3_pse>:
    1c1a:	99 23       	and	r25, r25
    1c1c:	b1 f3       	breq	.-20     	; 0x1c0a <__divsf3+0x1e>
    1c1e:	55 23       	and	r21, r21
    1c20:	91 f3       	breq	.-28     	; 0x1c06 <__divsf3+0x1a>
    1c22:	95 1b       	sub	r25, r21
    1c24:	55 0b       	sbc	r21, r21
    1c26:	bb 27       	eor	r27, r27
    1c28:	aa 27       	eor	r26, r26
    1c2a:	62 17       	cp	r22, r18
    1c2c:	73 07       	cpc	r23, r19
    1c2e:	84 07       	cpc	r24, r20
    1c30:	38 f0       	brcs	.+14     	; 0x1c40 <__divsf3_pse+0x26>
    1c32:	9f 5f       	subi	r25, 0xFF	; 255
    1c34:	5f 4f       	sbci	r21, 0xFF	; 255
    1c36:	22 0f       	add	r18, r18
    1c38:	33 1f       	adc	r19, r19
    1c3a:	44 1f       	adc	r20, r20
    1c3c:	aa 1f       	adc	r26, r26
    1c3e:	a9 f3       	breq	.-22     	; 0x1c2a <__divsf3_pse+0x10>
    1c40:	35 d0       	rcall	.+106    	; 0x1cac <__divsf3_pse+0x92>
    1c42:	0e 2e       	mov	r0, r30
    1c44:	3a f0       	brmi	.+14     	; 0x1c54 <__divsf3_pse+0x3a>
    1c46:	e0 e8       	ldi	r30, 0x80	; 128
    1c48:	32 d0       	rcall	.+100    	; 0x1cae <__divsf3_pse+0x94>
    1c4a:	91 50       	subi	r25, 0x01	; 1
    1c4c:	50 40       	sbci	r21, 0x00	; 0
    1c4e:	e6 95       	lsr	r30
    1c50:	00 1c       	adc	r0, r0
    1c52:	ca f7       	brpl	.-14     	; 0x1c46 <__divsf3_pse+0x2c>
    1c54:	2b d0       	rcall	.+86     	; 0x1cac <__divsf3_pse+0x92>
    1c56:	fe 2f       	mov	r31, r30
    1c58:	29 d0       	rcall	.+82     	; 0x1cac <__divsf3_pse+0x92>
    1c5a:	66 0f       	add	r22, r22
    1c5c:	77 1f       	adc	r23, r23
    1c5e:	88 1f       	adc	r24, r24
    1c60:	bb 1f       	adc	r27, r27
    1c62:	26 17       	cp	r18, r22
    1c64:	37 07       	cpc	r19, r23
    1c66:	48 07       	cpc	r20, r24
    1c68:	ab 07       	cpc	r26, r27
    1c6a:	b0 e8       	ldi	r27, 0x80	; 128
    1c6c:	09 f0       	breq	.+2      	; 0x1c70 <__divsf3_pse+0x56>
    1c6e:	bb 0b       	sbc	r27, r27
    1c70:	80 2d       	mov	r24, r0
    1c72:	bf 01       	movw	r22, r30
    1c74:	ff 27       	eor	r31, r31
    1c76:	93 58       	subi	r25, 0x83	; 131
    1c78:	5f 4f       	sbci	r21, 0xFF	; 255
    1c7a:	3a f0       	brmi	.+14     	; 0x1c8a <__divsf3_pse+0x70>
    1c7c:	9e 3f       	cpi	r25, 0xFE	; 254
    1c7e:	51 05       	cpc	r21, r1
    1c80:	78 f0       	brcs	.+30     	; 0x1ca0 <__divsf3_pse+0x86>
    1c82:	0c 94 ff 0e 	jmp	0x1dfe	; 0x1dfe <__fp_inf>
    1c86:	0c 94 89 0f 	jmp	0x1f12	; 0x1f12 <__fp_szero>
    1c8a:	5f 3f       	cpi	r21, 0xFF	; 255
    1c8c:	e4 f3       	brlt	.-8      	; 0x1c86 <__divsf3_pse+0x6c>
    1c8e:	98 3e       	cpi	r25, 0xE8	; 232
    1c90:	d4 f3       	brlt	.-12     	; 0x1c86 <__divsf3_pse+0x6c>
    1c92:	86 95       	lsr	r24
    1c94:	77 95       	ror	r23
    1c96:	67 95       	ror	r22
    1c98:	b7 95       	ror	r27
    1c9a:	f7 95       	ror	r31
    1c9c:	9f 5f       	subi	r25, 0xFF	; 255
    1c9e:	c9 f7       	brne	.-14     	; 0x1c92 <__divsf3_pse+0x78>
    1ca0:	88 0f       	add	r24, r24
    1ca2:	91 1d       	adc	r25, r1
    1ca4:	96 95       	lsr	r25
    1ca6:	87 95       	ror	r24
    1ca8:	97 f9       	bld	r25, 7
    1caa:	08 95       	ret
    1cac:	e1 e0       	ldi	r30, 0x01	; 1
    1cae:	66 0f       	add	r22, r22
    1cb0:	77 1f       	adc	r23, r23
    1cb2:	88 1f       	adc	r24, r24
    1cb4:	bb 1f       	adc	r27, r27
    1cb6:	62 17       	cp	r22, r18
    1cb8:	73 07       	cpc	r23, r19
    1cba:	84 07       	cpc	r24, r20
    1cbc:	ba 07       	cpc	r27, r26
    1cbe:	20 f0       	brcs	.+8      	; 0x1cc8 <__divsf3_pse+0xae>
    1cc0:	62 1b       	sub	r22, r18
    1cc2:	73 0b       	sbc	r23, r19
    1cc4:	84 0b       	sbc	r24, r20
    1cc6:	ba 0b       	sbc	r27, r26
    1cc8:	ee 1f       	adc	r30, r30
    1cca:	88 f7       	brcc	.-30     	; 0x1cae <__divsf3_pse+0x94>
    1ccc:	e0 95       	com	r30
    1cce:	08 95       	ret

00001cd0 <__fixsfsi>:
    1cd0:	0e 94 6f 0e 	call	0x1cde	; 0x1cde <__fixunssfsi>
    1cd4:	68 94       	set
    1cd6:	b1 11       	cpse	r27, r1
    1cd8:	0c 94 89 0f 	jmp	0x1f12	; 0x1f12 <__fp_szero>
    1cdc:	08 95       	ret

00001cde <__fixunssfsi>:
    1cde:	0e 94 6e 0f 	call	0x1edc	; 0x1edc <__fp_splitA>
    1ce2:	88 f0       	brcs	.+34     	; 0x1d06 <__fixunssfsi+0x28>
    1ce4:	9f 57       	subi	r25, 0x7F	; 127
    1ce6:	98 f0       	brcs	.+38     	; 0x1d0e <__fixunssfsi+0x30>
    1ce8:	b9 2f       	mov	r27, r25
    1cea:	99 27       	eor	r25, r25
    1cec:	b7 51       	subi	r27, 0x17	; 23
    1cee:	b0 f0       	brcs	.+44     	; 0x1d1c <__fixunssfsi+0x3e>
    1cf0:	e1 f0       	breq	.+56     	; 0x1d2a <__fixunssfsi+0x4c>
    1cf2:	66 0f       	add	r22, r22
    1cf4:	77 1f       	adc	r23, r23
    1cf6:	88 1f       	adc	r24, r24
    1cf8:	99 1f       	adc	r25, r25
    1cfa:	1a f0       	brmi	.+6      	; 0x1d02 <__fixunssfsi+0x24>
    1cfc:	ba 95       	dec	r27
    1cfe:	c9 f7       	brne	.-14     	; 0x1cf2 <__fixunssfsi+0x14>
    1d00:	14 c0       	rjmp	.+40     	; 0x1d2a <__fixunssfsi+0x4c>
    1d02:	b1 30       	cpi	r27, 0x01	; 1
    1d04:	91 f0       	breq	.+36     	; 0x1d2a <__fixunssfsi+0x4c>
    1d06:	0e 94 88 0f 	call	0x1f10	; 0x1f10 <__fp_zero>
    1d0a:	b1 e0       	ldi	r27, 0x01	; 1
    1d0c:	08 95       	ret
    1d0e:	0c 94 88 0f 	jmp	0x1f10	; 0x1f10 <__fp_zero>
    1d12:	67 2f       	mov	r22, r23
    1d14:	78 2f       	mov	r23, r24
    1d16:	88 27       	eor	r24, r24
    1d18:	b8 5f       	subi	r27, 0xF8	; 248
    1d1a:	39 f0       	breq	.+14     	; 0x1d2a <__fixunssfsi+0x4c>
    1d1c:	b9 3f       	cpi	r27, 0xF9	; 249
    1d1e:	cc f3       	brlt	.-14     	; 0x1d12 <__fixunssfsi+0x34>
    1d20:	86 95       	lsr	r24
    1d22:	77 95       	ror	r23
    1d24:	67 95       	ror	r22
    1d26:	b3 95       	inc	r27
    1d28:	d9 f7       	brne	.-10     	; 0x1d20 <__fixunssfsi+0x42>
    1d2a:	3e f4       	brtc	.+14     	; 0x1d3a <__fixunssfsi+0x5c>
    1d2c:	90 95       	com	r25
    1d2e:	80 95       	com	r24
    1d30:	70 95       	com	r23
    1d32:	61 95       	neg	r22
    1d34:	7f 4f       	sbci	r23, 0xFF	; 255
    1d36:	8f 4f       	sbci	r24, 0xFF	; 255
    1d38:	9f 4f       	sbci	r25, 0xFF	; 255
    1d3a:	08 95       	ret

00001d3c <__floatunsisf>:
    1d3c:	e8 94       	clt
    1d3e:	09 c0       	rjmp	.+18     	; 0x1d52 <__floatsisf+0x12>

00001d40 <__floatsisf>:
    1d40:	97 fb       	bst	r25, 7
    1d42:	3e f4       	brtc	.+14     	; 0x1d52 <__floatsisf+0x12>
    1d44:	90 95       	com	r25
    1d46:	80 95       	com	r24
    1d48:	70 95       	com	r23
    1d4a:	61 95       	neg	r22
    1d4c:	7f 4f       	sbci	r23, 0xFF	; 255
    1d4e:	8f 4f       	sbci	r24, 0xFF	; 255
    1d50:	9f 4f       	sbci	r25, 0xFF	; 255
    1d52:	99 23       	and	r25, r25
    1d54:	a9 f0       	breq	.+42     	; 0x1d80 <__floatsisf+0x40>
    1d56:	f9 2f       	mov	r31, r25
    1d58:	96 e9       	ldi	r25, 0x96	; 150
    1d5a:	bb 27       	eor	r27, r27
    1d5c:	93 95       	inc	r25
    1d5e:	f6 95       	lsr	r31
    1d60:	87 95       	ror	r24
    1d62:	77 95       	ror	r23
    1d64:	67 95       	ror	r22
    1d66:	b7 95       	ror	r27
    1d68:	f1 11       	cpse	r31, r1
    1d6a:	f8 cf       	rjmp	.-16     	; 0x1d5c <__floatsisf+0x1c>
    1d6c:	fa f4       	brpl	.+62     	; 0x1dac <__floatsisf+0x6c>
    1d6e:	bb 0f       	add	r27, r27
    1d70:	11 f4       	brne	.+4      	; 0x1d76 <__floatsisf+0x36>
    1d72:	60 ff       	sbrs	r22, 0
    1d74:	1b c0       	rjmp	.+54     	; 0x1dac <__floatsisf+0x6c>
    1d76:	6f 5f       	subi	r22, 0xFF	; 255
    1d78:	7f 4f       	sbci	r23, 0xFF	; 255
    1d7a:	8f 4f       	sbci	r24, 0xFF	; 255
    1d7c:	9f 4f       	sbci	r25, 0xFF	; 255
    1d7e:	16 c0       	rjmp	.+44     	; 0x1dac <__floatsisf+0x6c>
    1d80:	88 23       	and	r24, r24
    1d82:	11 f0       	breq	.+4      	; 0x1d88 <__floatsisf+0x48>
    1d84:	96 e9       	ldi	r25, 0x96	; 150
    1d86:	11 c0       	rjmp	.+34     	; 0x1daa <__floatsisf+0x6a>
    1d88:	77 23       	and	r23, r23
    1d8a:	21 f0       	breq	.+8      	; 0x1d94 <__floatsisf+0x54>
    1d8c:	9e e8       	ldi	r25, 0x8E	; 142
    1d8e:	87 2f       	mov	r24, r23
    1d90:	76 2f       	mov	r23, r22
    1d92:	05 c0       	rjmp	.+10     	; 0x1d9e <__floatsisf+0x5e>
    1d94:	66 23       	and	r22, r22
    1d96:	71 f0       	breq	.+28     	; 0x1db4 <__floatsisf+0x74>
    1d98:	96 e8       	ldi	r25, 0x86	; 134
    1d9a:	86 2f       	mov	r24, r22
    1d9c:	70 e0       	ldi	r23, 0x00	; 0
    1d9e:	60 e0       	ldi	r22, 0x00	; 0
    1da0:	2a f0       	brmi	.+10     	; 0x1dac <__floatsisf+0x6c>
    1da2:	9a 95       	dec	r25
    1da4:	66 0f       	add	r22, r22
    1da6:	77 1f       	adc	r23, r23
    1da8:	88 1f       	adc	r24, r24
    1daa:	da f7       	brpl	.-10     	; 0x1da2 <__floatsisf+0x62>
    1dac:	88 0f       	add	r24, r24
    1dae:	96 95       	lsr	r25
    1db0:	87 95       	ror	r24
    1db2:	97 f9       	bld	r25, 7
    1db4:	08 95       	ret

00001db6 <__fp_cmp>:
    1db6:	99 0f       	add	r25, r25
    1db8:	00 08       	sbc	r0, r0
    1dba:	55 0f       	add	r21, r21
    1dbc:	aa 0b       	sbc	r26, r26
    1dbe:	e0 e8       	ldi	r30, 0x80	; 128
    1dc0:	fe ef       	ldi	r31, 0xFE	; 254
    1dc2:	16 16       	cp	r1, r22
    1dc4:	17 06       	cpc	r1, r23
    1dc6:	e8 07       	cpc	r30, r24
    1dc8:	f9 07       	cpc	r31, r25
    1dca:	c0 f0       	brcs	.+48     	; 0x1dfc <__fp_cmp+0x46>
    1dcc:	12 16       	cp	r1, r18
    1dce:	13 06       	cpc	r1, r19
    1dd0:	e4 07       	cpc	r30, r20
    1dd2:	f5 07       	cpc	r31, r21
    1dd4:	98 f0       	brcs	.+38     	; 0x1dfc <__fp_cmp+0x46>
    1dd6:	62 1b       	sub	r22, r18
    1dd8:	73 0b       	sbc	r23, r19
    1dda:	84 0b       	sbc	r24, r20
    1ddc:	95 0b       	sbc	r25, r21
    1dde:	39 f4       	brne	.+14     	; 0x1dee <__fp_cmp+0x38>
    1de0:	0a 26       	eor	r0, r26
    1de2:	61 f0       	breq	.+24     	; 0x1dfc <__fp_cmp+0x46>
    1de4:	23 2b       	or	r18, r19
    1de6:	24 2b       	or	r18, r20
    1de8:	25 2b       	or	r18, r21
    1dea:	21 f4       	brne	.+8      	; 0x1df4 <__fp_cmp+0x3e>
    1dec:	08 95       	ret
    1dee:	0a 26       	eor	r0, r26
    1df0:	09 f4       	brne	.+2      	; 0x1df4 <__fp_cmp+0x3e>
    1df2:	a1 40       	sbci	r26, 0x01	; 1
    1df4:	a6 95       	lsr	r26
    1df6:	8f ef       	ldi	r24, 0xFF	; 255
    1df8:	81 1d       	adc	r24, r1
    1dfa:	81 1d       	adc	r24, r1
    1dfc:	08 95       	ret

00001dfe <__fp_inf>:
    1dfe:	97 f9       	bld	r25, 7
    1e00:	9f 67       	ori	r25, 0x7F	; 127
    1e02:	80 e8       	ldi	r24, 0x80	; 128
    1e04:	70 e0       	ldi	r23, 0x00	; 0
    1e06:	60 e0       	ldi	r22, 0x00	; 0
    1e08:	08 95       	ret

00001e0a <__fp_nan>:
    1e0a:	9f ef       	ldi	r25, 0xFF	; 255
    1e0c:	80 ec       	ldi	r24, 0xC0	; 192
    1e0e:	08 95       	ret

00001e10 <__fp_pscA>:
    1e10:	00 24       	eor	r0, r0
    1e12:	0a 94       	dec	r0
    1e14:	16 16       	cp	r1, r22
    1e16:	17 06       	cpc	r1, r23
    1e18:	18 06       	cpc	r1, r24
    1e1a:	09 06       	cpc	r0, r25
    1e1c:	08 95       	ret

00001e1e <__fp_pscB>:
    1e1e:	00 24       	eor	r0, r0
    1e20:	0a 94       	dec	r0
    1e22:	12 16       	cp	r1, r18
    1e24:	13 06       	cpc	r1, r19
    1e26:	14 06       	cpc	r1, r20
    1e28:	05 06       	cpc	r0, r21
    1e2a:	08 95       	ret
    1e2c:	0c 94 05 0f 	jmp	0x1e0a	; 0x1e0a <__fp_nan>

00001e30 <__fp_rempio2>:
    1e30:	0e 94 6e 0f 	call	0x1edc	; 0x1edc <__fp_splitA>
    1e34:	d8 f3       	brcs	.-10     	; 0x1e2c <__fp_pscB+0xe>
    1e36:	e8 94       	clt
    1e38:	e0 e0       	ldi	r30, 0x00	; 0
    1e3a:	bb 27       	eor	r27, r27
    1e3c:	9f 57       	subi	r25, 0x7F	; 127
    1e3e:	f0 f0       	brcs	.+60     	; 0x1e7c <__fp_rempio2+0x4c>
    1e40:	2a ed       	ldi	r18, 0xDA	; 218
    1e42:	3f e0       	ldi	r19, 0x0F	; 15
    1e44:	49 ec       	ldi	r20, 0xC9	; 201
    1e46:	06 c0       	rjmp	.+12     	; 0x1e54 <__fp_rempio2+0x24>
    1e48:	ee 0f       	add	r30, r30
    1e4a:	bb 0f       	add	r27, r27
    1e4c:	66 1f       	adc	r22, r22
    1e4e:	77 1f       	adc	r23, r23
    1e50:	88 1f       	adc	r24, r24
    1e52:	28 f0       	brcs	.+10     	; 0x1e5e <__fp_rempio2+0x2e>
    1e54:	b2 3a       	cpi	r27, 0xA2	; 162
    1e56:	62 07       	cpc	r22, r18
    1e58:	73 07       	cpc	r23, r19
    1e5a:	84 07       	cpc	r24, r20
    1e5c:	28 f0       	brcs	.+10     	; 0x1e68 <__fp_rempio2+0x38>
    1e5e:	b2 5a       	subi	r27, 0xA2	; 162
    1e60:	62 0b       	sbc	r22, r18
    1e62:	73 0b       	sbc	r23, r19
    1e64:	84 0b       	sbc	r24, r20
    1e66:	e3 95       	inc	r30
    1e68:	9a 95       	dec	r25
    1e6a:	72 f7       	brpl	.-36     	; 0x1e48 <__fp_rempio2+0x18>
    1e6c:	80 38       	cpi	r24, 0x80	; 128
    1e6e:	30 f4       	brcc	.+12     	; 0x1e7c <__fp_rempio2+0x4c>
    1e70:	9a 95       	dec	r25
    1e72:	bb 0f       	add	r27, r27
    1e74:	66 1f       	adc	r22, r22
    1e76:	77 1f       	adc	r23, r23
    1e78:	88 1f       	adc	r24, r24
    1e7a:	d2 f7       	brpl	.-12     	; 0x1e70 <__fp_rempio2+0x40>
    1e7c:	90 48       	sbci	r25, 0x80	; 128
    1e7e:	0c 94 5b 10 	jmp	0x20b6	; 0x20b6 <__fp_mpack_finite>

00001e82 <__fp_round>:
    1e82:	09 2e       	mov	r0, r25
    1e84:	03 94       	inc	r0
    1e86:	00 0c       	add	r0, r0
    1e88:	11 f4       	brne	.+4      	; 0x1e8e <__fp_round+0xc>
    1e8a:	88 23       	and	r24, r24
    1e8c:	52 f0       	brmi	.+20     	; 0x1ea2 <__fp_round+0x20>
    1e8e:	bb 0f       	add	r27, r27
    1e90:	40 f4       	brcc	.+16     	; 0x1ea2 <__fp_round+0x20>
    1e92:	bf 2b       	or	r27, r31
    1e94:	11 f4       	brne	.+4      	; 0x1e9a <__fp_round+0x18>
    1e96:	60 ff       	sbrs	r22, 0
    1e98:	04 c0       	rjmp	.+8      	; 0x1ea2 <__fp_round+0x20>
    1e9a:	6f 5f       	subi	r22, 0xFF	; 255
    1e9c:	7f 4f       	sbci	r23, 0xFF	; 255
    1e9e:	8f 4f       	sbci	r24, 0xFF	; 255
    1ea0:	9f 4f       	sbci	r25, 0xFF	; 255
    1ea2:	08 95       	ret

00001ea4 <__fp_sinus>:
    1ea4:	ef 93       	push	r30
    1ea6:	e0 ff       	sbrs	r30, 0
    1ea8:	07 c0       	rjmp	.+14     	; 0x1eb8 <__fp_sinus+0x14>
    1eaa:	a2 ea       	ldi	r26, 0xA2	; 162
    1eac:	2a ed       	ldi	r18, 0xDA	; 218
    1eae:	3f e0       	ldi	r19, 0x0F	; 15
    1eb0:	49 ec       	ldi	r20, 0xC9	; 201
    1eb2:	5f eb       	ldi	r21, 0xBF	; 191
    1eb4:	0e 94 97 0d 	call	0x1b2e	; 0x1b2e <__addsf3x>
    1eb8:	0e 94 41 0f 	call	0x1e82	; 0x1e82 <__fp_round>
    1ebc:	0f 90       	pop	r0
    1ebe:	03 94       	inc	r0
    1ec0:	01 fc       	sbrc	r0, 1
    1ec2:	90 58       	subi	r25, 0x80	; 128
    1ec4:	e8 e6       	ldi	r30, 0x68	; 104
    1ec6:	f0 e0       	ldi	r31, 0x00	; 0
    1ec8:	0c 94 8e 10 	jmp	0x211c	; 0x211c <__fp_powsodd>

00001ecc <__fp_split3>:
    1ecc:	57 fd       	sbrc	r21, 7
    1ece:	90 58       	subi	r25, 0x80	; 128
    1ed0:	44 0f       	add	r20, r20
    1ed2:	55 1f       	adc	r21, r21
    1ed4:	59 f0       	breq	.+22     	; 0x1eec <__fp_splitA+0x10>
    1ed6:	5f 3f       	cpi	r21, 0xFF	; 255
    1ed8:	71 f0       	breq	.+28     	; 0x1ef6 <__fp_splitA+0x1a>
    1eda:	47 95       	ror	r20

00001edc <__fp_splitA>:
    1edc:	88 0f       	add	r24, r24
    1ede:	97 fb       	bst	r25, 7
    1ee0:	99 1f       	adc	r25, r25
    1ee2:	61 f0       	breq	.+24     	; 0x1efc <__fp_splitA+0x20>
    1ee4:	9f 3f       	cpi	r25, 0xFF	; 255
    1ee6:	79 f0       	breq	.+30     	; 0x1f06 <__fp_splitA+0x2a>
    1ee8:	87 95       	ror	r24
    1eea:	08 95       	ret
    1eec:	12 16       	cp	r1, r18
    1eee:	13 06       	cpc	r1, r19
    1ef0:	14 06       	cpc	r1, r20
    1ef2:	55 1f       	adc	r21, r21
    1ef4:	f2 cf       	rjmp	.-28     	; 0x1eda <__fp_split3+0xe>
    1ef6:	46 95       	lsr	r20
    1ef8:	f1 df       	rcall	.-30     	; 0x1edc <__fp_splitA>
    1efa:	08 c0       	rjmp	.+16     	; 0x1f0c <__fp_splitA+0x30>
    1efc:	16 16       	cp	r1, r22
    1efe:	17 06       	cpc	r1, r23
    1f00:	18 06       	cpc	r1, r24
    1f02:	99 1f       	adc	r25, r25
    1f04:	f1 cf       	rjmp	.-30     	; 0x1ee8 <__fp_splitA+0xc>
    1f06:	86 95       	lsr	r24
    1f08:	71 05       	cpc	r23, r1
    1f0a:	61 05       	cpc	r22, r1
    1f0c:	08 94       	sec
    1f0e:	08 95       	ret

00001f10 <__fp_zero>:
    1f10:	e8 94       	clt

00001f12 <__fp_szero>:
    1f12:	bb 27       	eor	r27, r27
    1f14:	66 27       	eor	r22, r22
    1f16:	77 27       	eor	r23, r23
    1f18:	cb 01       	movw	r24, r22
    1f1a:	97 f9       	bld	r25, 7
    1f1c:	08 95       	ret

00001f1e <__gesf2>:
    1f1e:	0e 94 db 0e 	call	0x1db6	; 0x1db6 <__fp_cmp>
    1f22:	08 f4       	brcc	.+2      	; 0x1f26 <__gesf2+0x8>
    1f24:	8f ef       	ldi	r24, 0xFF	; 255
    1f26:	08 95       	ret
    1f28:	16 f0       	brts	.+4      	; 0x1f2e <__gesf2+0x10>
    1f2a:	0c 94 59 10 	jmp	0x20b2	; 0x20b2 <__fp_mpack>
    1f2e:	0c 94 05 0f 	jmp	0x1e0a	; 0x1e0a <__fp_nan>
    1f32:	68 94       	set
    1f34:	0c 94 ff 0e 	jmp	0x1dfe	; 0x1dfe <__fp_inf>

00001f38 <log>:
    1f38:	0e 94 6e 0f 	call	0x1edc	; 0x1edc <__fp_splitA>
    1f3c:	a8 f3       	brcs	.-22     	; 0x1f28 <__gesf2+0xa>
    1f3e:	99 23       	and	r25, r25
    1f40:	c1 f3       	breq	.-16     	; 0x1f32 <__gesf2+0x14>
    1f42:	ae f3       	brts	.-22     	; 0x1f2e <__gesf2+0x10>
    1f44:	df 93       	push	r29
    1f46:	cf 93       	push	r28
    1f48:	1f 93       	push	r17
    1f4a:	0f 93       	push	r16
    1f4c:	ff 92       	push	r15
    1f4e:	c9 2f       	mov	r28, r25
    1f50:	dd 27       	eor	r29, r29
    1f52:	88 23       	and	r24, r24
    1f54:	2a f0       	brmi	.+10     	; 0x1f60 <log+0x28>
    1f56:	21 97       	sbiw	r28, 0x01	; 1
    1f58:	66 0f       	add	r22, r22
    1f5a:	77 1f       	adc	r23, r23
    1f5c:	88 1f       	adc	r24, r24
    1f5e:	da f7       	brpl	.-10     	; 0x1f56 <log+0x1e>
    1f60:	20 e0       	ldi	r18, 0x00	; 0
    1f62:	30 e0       	ldi	r19, 0x00	; 0
    1f64:	40 e8       	ldi	r20, 0x80	; 128
    1f66:	5f eb       	ldi	r21, 0xBF	; 191
    1f68:	9f e3       	ldi	r25, 0x3F	; 63
    1f6a:	88 39       	cpi	r24, 0x98	; 152
    1f6c:	20 f0       	brcs	.+8      	; 0x1f76 <log+0x3e>
    1f6e:	80 3e       	cpi	r24, 0xE0	; 224
    1f70:	38 f0       	brcs	.+14     	; 0x1f80 <log+0x48>
    1f72:	21 96       	adiw	r28, 0x01	; 1
    1f74:	8f 77       	andi	r24, 0x7F	; 127
    1f76:	0e 94 80 0d 	call	0x1b00	; 0x1b00 <__addsf3>
    1f7a:	e6 e8       	ldi	r30, 0x86	; 134
    1f7c:	f0 e0       	ldi	r31, 0x00	; 0
    1f7e:	04 c0       	rjmp	.+8      	; 0x1f88 <log+0x50>
    1f80:	0e 94 80 0d 	call	0x1b00	; 0x1b00 <__addsf3>
    1f84:	e3 eb       	ldi	r30, 0xB3	; 179
    1f86:	f0 e0       	ldi	r31, 0x00	; 0
    1f88:	0e 94 67 10 	call	0x20ce	; 0x20ce <__fp_powser>
    1f8c:	8b 01       	movw	r16, r22
    1f8e:	be 01       	movw	r22, r28
    1f90:	ec 01       	movw	r28, r24
    1f92:	fb 2e       	mov	r15, r27
    1f94:	6f 57       	subi	r22, 0x7F	; 127
    1f96:	71 09       	sbc	r23, r1
    1f98:	75 95       	asr	r23
    1f9a:	77 1f       	adc	r23, r23
    1f9c:	88 0b       	sbc	r24, r24
    1f9e:	99 0b       	sbc	r25, r25
    1fa0:	0e 94 a0 0e 	call	0x1d40	; 0x1d40 <__floatsisf>
    1fa4:	28 e1       	ldi	r18, 0x18	; 24
    1fa6:	32 e7       	ldi	r19, 0x72	; 114
    1fa8:	41 e3       	ldi	r20, 0x31	; 49
    1faa:	5f e3       	ldi	r21, 0x3F	; 63
    1fac:	0e 94 f7 0f 	call	0x1fee	; 0x1fee <__mulsf3x>
    1fb0:	af 2d       	mov	r26, r15
    1fb2:	98 01       	movw	r18, r16
    1fb4:	ae 01       	movw	r20, r28
    1fb6:	ff 90       	pop	r15
    1fb8:	0f 91       	pop	r16
    1fba:	1f 91       	pop	r17
    1fbc:	cf 91       	pop	r28
    1fbe:	df 91       	pop	r29
    1fc0:	0e 94 97 0d 	call	0x1b2e	; 0x1b2e <__addsf3x>
    1fc4:	0c 94 41 0f 	jmp	0x1e82	; 0x1e82 <__fp_round>

00001fc8 <__mulsf3>:
    1fc8:	0e 94 f7 0f 	call	0x1fee	; 0x1fee <__mulsf3x>
    1fcc:	0c 94 41 0f 	jmp	0x1e82	; 0x1e82 <__fp_round>
    1fd0:	0e 94 08 0f 	call	0x1e10	; 0x1e10 <__fp_pscA>
    1fd4:	38 f0       	brcs	.+14     	; 0x1fe4 <__mulsf3+0x1c>
    1fd6:	0e 94 0f 0f 	call	0x1e1e	; 0x1e1e <__fp_pscB>
    1fda:	20 f0       	brcs	.+8      	; 0x1fe4 <__mulsf3+0x1c>
    1fdc:	95 23       	and	r25, r21
    1fde:	11 f0       	breq	.+4      	; 0x1fe4 <__mulsf3+0x1c>
    1fe0:	0c 94 ff 0e 	jmp	0x1dfe	; 0x1dfe <__fp_inf>
    1fe4:	0c 94 05 0f 	jmp	0x1e0a	; 0x1e0a <__fp_nan>
    1fe8:	11 24       	eor	r1, r1
    1fea:	0c 94 89 0f 	jmp	0x1f12	; 0x1f12 <__fp_szero>

00001fee <__mulsf3x>:
    1fee:	0e 94 66 0f 	call	0x1ecc	; 0x1ecc <__fp_split3>
    1ff2:	70 f3       	brcs	.-36     	; 0x1fd0 <__mulsf3+0x8>

00001ff4 <__mulsf3_pse>:
    1ff4:	95 9f       	mul	r25, r21
    1ff6:	c1 f3       	breq	.-16     	; 0x1fe8 <__mulsf3+0x20>
    1ff8:	95 0f       	add	r25, r21
    1ffa:	50 e0       	ldi	r21, 0x00	; 0
    1ffc:	55 1f       	adc	r21, r21
    1ffe:	62 9f       	mul	r22, r18
    2000:	f0 01       	movw	r30, r0
    2002:	72 9f       	mul	r23, r18
    2004:	bb 27       	eor	r27, r27
    2006:	f0 0d       	add	r31, r0
    2008:	b1 1d       	adc	r27, r1
    200a:	63 9f       	mul	r22, r19
    200c:	aa 27       	eor	r26, r26
    200e:	f0 0d       	add	r31, r0
    2010:	b1 1d       	adc	r27, r1
    2012:	aa 1f       	adc	r26, r26
    2014:	64 9f       	mul	r22, r20
    2016:	66 27       	eor	r22, r22
    2018:	b0 0d       	add	r27, r0
    201a:	a1 1d       	adc	r26, r1
    201c:	66 1f       	adc	r22, r22
    201e:	82 9f       	mul	r24, r18
    2020:	22 27       	eor	r18, r18
    2022:	b0 0d       	add	r27, r0
    2024:	a1 1d       	adc	r26, r1
    2026:	62 1f       	adc	r22, r18
    2028:	73 9f       	mul	r23, r19
    202a:	b0 0d       	add	r27, r0
    202c:	a1 1d       	adc	r26, r1
    202e:	62 1f       	adc	r22, r18
    2030:	83 9f       	mul	r24, r19
    2032:	a0 0d       	add	r26, r0
    2034:	61 1d       	adc	r22, r1
    2036:	22 1f       	adc	r18, r18
    2038:	74 9f       	mul	r23, r20
    203a:	33 27       	eor	r19, r19
    203c:	a0 0d       	add	r26, r0
    203e:	61 1d       	adc	r22, r1
    2040:	23 1f       	adc	r18, r19
    2042:	84 9f       	mul	r24, r20
    2044:	60 0d       	add	r22, r0
    2046:	21 1d       	adc	r18, r1
    2048:	82 2f       	mov	r24, r18
    204a:	76 2f       	mov	r23, r22
    204c:	6a 2f       	mov	r22, r26
    204e:	11 24       	eor	r1, r1
    2050:	9f 57       	subi	r25, 0x7F	; 127
    2052:	50 40       	sbci	r21, 0x00	; 0
    2054:	9a f0       	brmi	.+38     	; 0x207c <__mulsf3_pse+0x88>
    2056:	f1 f0       	breq	.+60     	; 0x2094 <__mulsf3_pse+0xa0>
    2058:	88 23       	and	r24, r24
    205a:	4a f0       	brmi	.+18     	; 0x206e <__mulsf3_pse+0x7a>
    205c:	ee 0f       	add	r30, r30
    205e:	ff 1f       	adc	r31, r31
    2060:	bb 1f       	adc	r27, r27
    2062:	66 1f       	adc	r22, r22
    2064:	77 1f       	adc	r23, r23
    2066:	88 1f       	adc	r24, r24
    2068:	91 50       	subi	r25, 0x01	; 1
    206a:	50 40       	sbci	r21, 0x00	; 0
    206c:	a9 f7       	brne	.-22     	; 0x2058 <__mulsf3_pse+0x64>
    206e:	9e 3f       	cpi	r25, 0xFE	; 254
    2070:	51 05       	cpc	r21, r1
    2072:	80 f0       	brcs	.+32     	; 0x2094 <__mulsf3_pse+0xa0>
    2074:	0c 94 ff 0e 	jmp	0x1dfe	; 0x1dfe <__fp_inf>
    2078:	0c 94 89 0f 	jmp	0x1f12	; 0x1f12 <__fp_szero>
    207c:	5f 3f       	cpi	r21, 0xFF	; 255
    207e:	e4 f3       	brlt	.-8      	; 0x2078 <__mulsf3_pse+0x84>
    2080:	98 3e       	cpi	r25, 0xE8	; 232
    2082:	d4 f3       	brlt	.-12     	; 0x2078 <__mulsf3_pse+0x84>
    2084:	86 95       	lsr	r24
    2086:	77 95       	ror	r23
    2088:	67 95       	ror	r22
    208a:	b7 95       	ror	r27
    208c:	f7 95       	ror	r31
    208e:	e7 95       	ror	r30
    2090:	9f 5f       	subi	r25, 0xFF	; 255
    2092:	c1 f7       	brne	.-16     	; 0x2084 <__mulsf3_pse+0x90>
    2094:	fe 2b       	or	r31, r30
    2096:	88 0f       	add	r24, r24
    2098:	91 1d       	adc	r25, r1
    209a:	96 95       	lsr	r25
    209c:	87 95       	ror	r24
    209e:	97 f9       	bld	r25, 7
    20a0:	08 95       	ret

000020a2 <sin>:
    20a2:	9f 93       	push	r25
    20a4:	0e 94 18 0f 	call	0x1e30	; 0x1e30 <__fp_rempio2>
    20a8:	0f 90       	pop	r0
    20aa:	07 fc       	sbrc	r0, 7
    20ac:	ee 5f       	subi	r30, 0xFE	; 254
    20ae:	0c 94 52 0f 	jmp	0x1ea4	; 0x1ea4 <__fp_sinus>

000020b2 <__fp_mpack>:
    20b2:	9f 3f       	cpi	r25, 0xFF	; 255
    20b4:	31 f0       	breq	.+12     	; 0x20c2 <__fp_mpack_finite+0xc>

000020b6 <__fp_mpack_finite>:
    20b6:	91 50       	subi	r25, 0x01	; 1
    20b8:	20 f4       	brcc	.+8      	; 0x20c2 <__fp_mpack_finite+0xc>
    20ba:	87 95       	ror	r24
    20bc:	77 95       	ror	r23
    20be:	67 95       	ror	r22
    20c0:	b7 95       	ror	r27
    20c2:	88 0f       	add	r24, r24
    20c4:	91 1d       	adc	r25, r1
    20c6:	96 95       	lsr	r25
    20c8:	87 95       	ror	r24
    20ca:	97 f9       	bld	r25, 7
    20cc:	08 95       	ret

000020ce <__fp_powser>:
    20ce:	df 93       	push	r29
    20d0:	cf 93       	push	r28
    20d2:	1f 93       	push	r17
    20d4:	0f 93       	push	r16
    20d6:	ff 92       	push	r15
    20d8:	ef 92       	push	r14
    20da:	df 92       	push	r13
    20dc:	7b 01       	movw	r14, r22
    20de:	8c 01       	movw	r16, r24
    20e0:	68 94       	set
    20e2:	06 c0       	rjmp	.+12     	; 0x20f0 <__fp_powser+0x22>
    20e4:	da 2e       	mov	r13, r26
    20e6:	ef 01       	movw	r28, r30
    20e8:	0e 94 f7 0f 	call	0x1fee	; 0x1fee <__mulsf3x>
    20ec:	fe 01       	movw	r30, r28
    20ee:	e8 94       	clt
    20f0:	a5 91       	lpm	r26, Z+
    20f2:	25 91       	lpm	r18, Z+
    20f4:	35 91       	lpm	r19, Z+
    20f6:	45 91       	lpm	r20, Z+
    20f8:	55 91       	lpm	r21, Z+
    20fa:	a6 f3       	brts	.-24     	; 0x20e4 <__fp_powser+0x16>
    20fc:	ef 01       	movw	r28, r30
    20fe:	0e 94 97 0d 	call	0x1b2e	; 0x1b2e <__addsf3x>
    2102:	fe 01       	movw	r30, r28
    2104:	97 01       	movw	r18, r14
    2106:	a8 01       	movw	r20, r16
    2108:	da 94       	dec	r13
    210a:	69 f7       	brne	.-38     	; 0x20e6 <__fp_powser+0x18>
    210c:	df 90       	pop	r13
    210e:	ef 90       	pop	r14
    2110:	ff 90       	pop	r15
    2112:	0f 91       	pop	r16
    2114:	1f 91       	pop	r17
    2116:	cf 91       	pop	r28
    2118:	df 91       	pop	r29
    211a:	08 95       	ret

0000211c <__fp_powsodd>:
    211c:	9f 93       	push	r25
    211e:	8f 93       	push	r24
    2120:	7f 93       	push	r23
    2122:	6f 93       	push	r22
    2124:	ff 93       	push	r31
    2126:	ef 93       	push	r30
    2128:	9b 01       	movw	r18, r22
    212a:	ac 01       	movw	r20, r24
    212c:	0e 94 e4 0f 	call	0x1fc8	; 0x1fc8 <__mulsf3>
    2130:	ef 91       	pop	r30
    2132:	ff 91       	pop	r31
    2134:	0e 94 67 10 	call	0x20ce	; 0x20ce <__fp_powser>
    2138:	2f 91       	pop	r18
    213a:	3f 91       	pop	r19
    213c:	4f 91       	pop	r20
    213e:	5f 91       	pop	r21
    2140:	0c 94 e4 0f 	jmp	0x1fc8	; 0x1fc8 <__mulsf3>

00002144 <__divmodhi4>:
    2144:	97 fb       	bst	r25, 7
    2146:	07 2e       	mov	r0, r23
    2148:	16 f4       	brtc	.+4      	; 0x214e <__divmodhi4+0xa>
    214a:	00 94       	com	r0
    214c:	07 d0       	rcall	.+14     	; 0x215c <__divmodhi4_neg1>
    214e:	77 fd       	sbrc	r23, 7
    2150:	09 d0       	rcall	.+18     	; 0x2164 <__divmodhi4_neg2>
    2152:	0e 94 b6 10 	call	0x216c	; 0x216c <__udivmodhi4>
    2156:	07 fc       	sbrc	r0, 7
    2158:	05 d0       	rcall	.+10     	; 0x2164 <__divmodhi4_neg2>
    215a:	3e f4       	brtc	.+14     	; 0x216a <__divmodhi4_exit>

0000215c <__divmodhi4_neg1>:
    215c:	90 95       	com	r25
    215e:	81 95       	neg	r24
    2160:	9f 4f       	sbci	r25, 0xFF	; 255
    2162:	08 95       	ret

00002164 <__divmodhi4_neg2>:
    2164:	70 95       	com	r23
    2166:	61 95       	neg	r22
    2168:	7f 4f       	sbci	r23, 0xFF	; 255

0000216a <__divmodhi4_exit>:
    216a:	08 95       	ret

0000216c <__udivmodhi4>:
    216c:	aa 1b       	sub	r26, r26
    216e:	bb 1b       	sub	r27, r27
    2170:	51 e1       	ldi	r21, 0x11	; 17
    2172:	07 c0       	rjmp	.+14     	; 0x2182 <__udivmodhi4_ep>

00002174 <__udivmodhi4_loop>:
    2174:	aa 1f       	adc	r26, r26
    2176:	bb 1f       	adc	r27, r27
    2178:	a6 17       	cp	r26, r22
    217a:	b7 07       	cpc	r27, r23
    217c:	10 f0       	brcs	.+4      	; 0x2182 <__udivmodhi4_ep>
    217e:	a6 1b       	sub	r26, r22
    2180:	b7 0b       	sbc	r27, r23

00002182 <__udivmodhi4_ep>:
    2182:	88 1f       	adc	r24, r24
    2184:	99 1f       	adc	r25, r25
    2186:	5a 95       	dec	r21
    2188:	a9 f7       	brne	.-22     	; 0x2174 <__udivmodhi4_loop>
    218a:	80 95       	com	r24
    218c:	90 95       	com	r25
    218e:	bc 01       	movw	r22, r24
    2190:	cd 01       	movw	r24, r26
    2192:	08 95       	ret

00002194 <do_rand>:
    2194:	8f 92       	push	r8
    2196:	9f 92       	push	r9
    2198:	af 92       	push	r10
    219a:	bf 92       	push	r11
    219c:	cf 92       	push	r12
    219e:	df 92       	push	r13
    21a0:	ef 92       	push	r14
    21a2:	ff 92       	push	r15
    21a4:	cf 93       	push	r28
    21a6:	df 93       	push	r29
    21a8:	ec 01       	movw	r28, r24
    21aa:	68 81       	ld	r22, Y
    21ac:	79 81       	ldd	r23, Y+1	; 0x01
    21ae:	8a 81       	ldd	r24, Y+2	; 0x02
    21b0:	9b 81       	ldd	r25, Y+3	; 0x03
    21b2:	61 15       	cp	r22, r1
    21b4:	71 05       	cpc	r23, r1
    21b6:	81 05       	cpc	r24, r1
    21b8:	91 05       	cpc	r25, r1
    21ba:	21 f4       	brne	.+8      	; 0x21c4 <do_rand+0x30>
    21bc:	64 e2       	ldi	r22, 0x24	; 36
    21be:	79 ed       	ldi	r23, 0xD9	; 217
    21c0:	8b e5       	ldi	r24, 0x5B	; 91
    21c2:	97 e0       	ldi	r25, 0x07	; 7
    21c4:	2d e1       	ldi	r18, 0x1D	; 29
    21c6:	33 ef       	ldi	r19, 0xF3	; 243
    21c8:	41 e0       	ldi	r20, 0x01	; 1
    21ca:	50 e0       	ldi	r21, 0x00	; 0
    21cc:	0e 94 26 11 	call	0x224c	; 0x224c <__divmodsi4>
    21d0:	49 01       	movw	r8, r18
    21d2:	5a 01       	movw	r10, r20
    21d4:	9b 01       	movw	r18, r22
    21d6:	ac 01       	movw	r20, r24
    21d8:	a7 ea       	ldi	r26, 0xA7	; 167
    21da:	b1 e4       	ldi	r27, 0x41	; 65
    21dc:	0e 94 45 11 	call	0x228a	; 0x228a <__muluhisi3>
    21e0:	6b 01       	movw	r12, r22
    21e2:	7c 01       	movw	r14, r24
    21e4:	ac ee       	ldi	r26, 0xEC	; 236
    21e6:	b4 ef       	ldi	r27, 0xF4	; 244
    21e8:	a5 01       	movw	r20, r10
    21ea:	94 01       	movw	r18, r8
    21ec:	0e 94 53 11 	call	0x22a6	; 0x22a6 <__mulohisi3>
    21f0:	dc 01       	movw	r26, r24
    21f2:	cb 01       	movw	r24, r22
    21f4:	8c 0d       	add	r24, r12
    21f6:	9d 1d       	adc	r25, r13
    21f8:	ae 1d       	adc	r26, r14
    21fa:	bf 1d       	adc	r27, r15
    21fc:	b7 ff       	sbrs	r27, 7
    21fe:	03 c0       	rjmp	.+6      	; 0x2206 <do_rand+0x72>
    2200:	01 97       	sbiw	r24, 0x01	; 1
    2202:	a1 09       	sbc	r26, r1
    2204:	b0 48       	sbci	r27, 0x80	; 128
    2206:	88 83       	st	Y, r24
    2208:	99 83       	std	Y+1, r25	; 0x01
    220a:	aa 83       	std	Y+2, r26	; 0x02
    220c:	bb 83       	std	Y+3, r27	; 0x03
    220e:	9f 77       	andi	r25, 0x7F	; 127
    2210:	df 91       	pop	r29
    2212:	cf 91       	pop	r28
    2214:	ff 90       	pop	r15
    2216:	ef 90       	pop	r14
    2218:	df 90       	pop	r13
    221a:	cf 90       	pop	r12
    221c:	bf 90       	pop	r11
    221e:	af 90       	pop	r10
    2220:	9f 90       	pop	r9
    2222:	8f 90       	pop	r8
    2224:	08 95       	ret

00002226 <rand_r>:
    2226:	0e 94 ca 10 	call	0x2194	; 0x2194 <do_rand>
    222a:	08 95       	ret

0000222c <rand>:
    222c:	80 e0       	ldi	r24, 0x00	; 0
    222e:	91 e0       	ldi	r25, 0x01	; 1
    2230:	0e 94 ca 10 	call	0x2194	; 0x2194 <do_rand>
    2234:	08 95       	ret

00002236 <srand>:
    2236:	a0 e0       	ldi	r26, 0x00	; 0
    2238:	b0 e0       	ldi	r27, 0x00	; 0
    223a:	80 93 00 01 	sts	0x0100, r24	; 0x800100 <__data_start>
    223e:	90 93 01 01 	sts	0x0101, r25	; 0x800101 <__data_start+0x1>
    2242:	a0 93 02 01 	sts	0x0102, r26	; 0x800102 <__data_start+0x2>
    2246:	b0 93 03 01 	sts	0x0103, r27	; 0x800103 <__data_start+0x3>
    224a:	08 95       	ret

0000224c <__divmodsi4>:
    224c:	05 2e       	mov	r0, r21
    224e:	97 fb       	bst	r25, 7
    2250:	1e f4       	brtc	.+6      	; 0x2258 <__divmodsi4+0xc>
    2252:	00 94       	com	r0
    2254:	0e 94 3d 11 	call	0x227a	; 0x227a <__negsi2>
    2258:	57 fd       	sbrc	r21, 7
    225a:	07 d0       	rcall	.+14     	; 0x226a <__divmodsi4_neg2>
    225c:	0e 94 58 11 	call	0x22b0	; 0x22b0 <__udivmodsi4>
    2260:	07 fc       	sbrc	r0, 7
    2262:	03 d0       	rcall	.+6      	; 0x226a <__divmodsi4_neg2>
    2264:	4e f4       	brtc	.+18     	; 0x2278 <__divmodsi4_exit>
    2266:	0c 94 3d 11 	jmp	0x227a	; 0x227a <__negsi2>

0000226a <__divmodsi4_neg2>:
    226a:	50 95       	com	r21
    226c:	40 95       	com	r20
    226e:	30 95       	com	r19
    2270:	21 95       	neg	r18
    2272:	3f 4f       	sbci	r19, 0xFF	; 255
    2274:	4f 4f       	sbci	r20, 0xFF	; 255
    2276:	5f 4f       	sbci	r21, 0xFF	; 255

00002278 <__divmodsi4_exit>:
    2278:	08 95       	ret

0000227a <__negsi2>:
    227a:	90 95       	com	r25
    227c:	80 95       	com	r24
    227e:	70 95       	com	r23
    2280:	61 95       	neg	r22
    2282:	7f 4f       	sbci	r23, 0xFF	; 255
    2284:	8f 4f       	sbci	r24, 0xFF	; 255
    2286:	9f 4f       	sbci	r25, 0xFF	; 255
    2288:	08 95       	ret

0000228a <__muluhisi3>:
    228a:	0e 94 7a 11 	call	0x22f4	; 0x22f4 <__umulhisi3>
    228e:	a5 9f       	mul	r26, r21
    2290:	90 0d       	add	r25, r0
    2292:	b4 9f       	mul	r27, r20
    2294:	90 0d       	add	r25, r0
    2296:	a4 9f       	mul	r26, r20
    2298:	80 0d       	add	r24, r0
    229a:	91 1d       	adc	r25, r1
    229c:	11 24       	eor	r1, r1
    229e:	08 95       	ret

000022a0 <__mulshisi3>:
    22a0:	b7 ff       	sbrs	r27, 7
    22a2:	0c 94 45 11 	jmp	0x228a	; 0x228a <__muluhisi3>

000022a6 <__mulohisi3>:
    22a6:	0e 94 45 11 	call	0x228a	; 0x228a <__muluhisi3>
    22aa:	82 1b       	sub	r24, r18
    22ac:	93 0b       	sbc	r25, r19
    22ae:	08 95       	ret

000022b0 <__udivmodsi4>:
    22b0:	a1 e2       	ldi	r26, 0x21	; 33
    22b2:	1a 2e       	mov	r1, r26
    22b4:	aa 1b       	sub	r26, r26
    22b6:	bb 1b       	sub	r27, r27
    22b8:	fd 01       	movw	r30, r26
    22ba:	0d c0       	rjmp	.+26     	; 0x22d6 <__udivmodsi4_ep>

000022bc <__udivmodsi4_loop>:
    22bc:	aa 1f       	adc	r26, r26
    22be:	bb 1f       	adc	r27, r27
    22c0:	ee 1f       	adc	r30, r30
    22c2:	ff 1f       	adc	r31, r31
    22c4:	a2 17       	cp	r26, r18
    22c6:	b3 07       	cpc	r27, r19
    22c8:	e4 07       	cpc	r30, r20
    22ca:	f5 07       	cpc	r31, r21
    22cc:	20 f0       	brcs	.+8      	; 0x22d6 <__udivmodsi4_ep>
    22ce:	a2 1b       	sub	r26, r18
    22d0:	b3 0b       	sbc	r27, r19
    22d2:	e4 0b       	sbc	r30, r20
    22d4:	f5 0b       	sbc	r31, r21

000022d6 <__udivmodsi4_ep>:
    22d6:	66 1f       	adc	r22, r22
    22d8:	77 1f       	adc	r23, r23
    22da:	88 1f       	adc	r24, r24
    22dc:	99 1f       	adc	r25, r25
    22de:	1a 94       	dec	r1
    22e0:	69 f7       	brne	.-38     	; 0x22bc <__udivmodsi4_loop>
    22e2:	60 95       	com	r22
    22e4:	70 95       	com	r23
    22e6:	80 95       	com	r24
    22e8:	90 95       	com	r25
    22ea:	9b 01       	movw	r18, r22
    22ec:	ac 01       	movw	r20, r24
    22ee:	bd 01       	movw	r22, r26
    22f0:	cf 01       	movw	r24, r30
    22f2:	08 95       	ret

000022f4 <__umulhisi3>:
    22f4:	a2 9f       	mul	r26, r18
    22f6:	b0 01       	movw	r22, r0
    22f8:	b3 9f       	mul	r27, r19
    22fa:	c0 01       	movw	r24, r0
    22fc:	a3 9f       	mul	r26, r19
    22fe:	70 0d       	add	r23, r0
    2300:	81 1d       	adc	r24, r1
    2302:	11 24       	eor	r1, r1
    2304:	91 1d       	adc	r25, r1
    2306:	b2 9f       	mul	r27, r18
    2308:	70 0d       	add	r23, r0
    230a:	81 1d       	adc	r24, r1
    230c:	11 24       	eor	r1, r1
    230e:	91 1d       	adc	r25, r1
    2310:	08 95       	ret

00002312 <_exit>:
    2312:	f8 94       	cli

00002314 <__stop_program>:
    2314:	ff cf       	rjmp	.-2      	; 0x2314 <__stop_program>
